(dp0
V303.00
p1
L637L
sV309.8
p2
L7263L
sV872.61
p3
L4993L
sV696.1
p4
L1267L
sV787.01
p5
L247L
sV790.3
p6
L2084L
sV709.9
p7
L1057L
sV940.4
p8
L7453L
sV940.1
p9
L6294L
sV792.5
p10
L4018L
sV441.03
p11
L7806L
sV365.63
p12
L2769L
sVE962.1
p13
L8511L
sVE867
p14
L7163L
sV307.52
p15
L5972L
sV553.2
p16
L7925L
sV621.33
p17
L6158L
sVV21.35
p18
L3520L
sV197.7
p19
L711L
sV394.9
p20
L2286L
sV654.63
p21
L4199L
sV551.3
p22
L4969L
sV743.52
p23
L4241L
sV426.12
p24
L6397L
sV209.57
p25
L8158L
sV718.70
p26
L4714L
sV333.79
p27
L4119L
sV346.20
p28
L3139L
sVV68.81
p29
L2831L
sV551.1
p30
L8377L
sV318.0
p31
L606L
sVE982.9
p32
L7517L
sVV65.8
p33
L2832L
sV703.0
p34
L82L
sV735.8
p35
L1165L
sV793.99
p36
L766L
sVV25.8
p37
L256L
sV788.41
p38
L858L
sV719.67
p39
L3975L
sV049.9
p40
L8629L
sV845.09
p41
L1894L
sV307.0
p42
L5611L
sV296.99
p43
L1890L
sV372.06
p44
L5620L
sV692.79
p45
L2727L
sV036.9
p46
L3467L
sV312.23
p47
L3400L
sV366.11
p48
L2962L
sVE926.2
p49
L7169L
sV947.9
p50
L8026L
sV737.0
p51
L7114L
sV718.43
p52
L4024L
sV286.5
p53
L2950L
sV736.72
p54
L2882L
sV680.9
p55
L1204L
sV535.61
p56
L1060L
sV754.51
p57
L3030L
sV728.89
p58
L2343L
sV571.8
p59
L438L
sVV10.11
p60
L1875L
sV750.26
p61
L5957L
sVE901.0
p62
L5616L
sVE926.9
p63
L5355L
sV718.86
p64
L9L
sVV71.01
p65
L5456L
sV997.71
p66
L7647L
sVV62.89
p67
L3953L
sV715.26
p68
L5055L
sV522.7
p69
L3910L
sV173.51
p70
L3303L
sV311.0
p71
L8642L
sV355.8
p72
L1129L
sV389.11
p73
L1310L
sV719.97
p74
L2547L
sV369.04
p75
L6655L
sV664.81
p76
L8650L
sVV17.0
p77
L666L
sVE950.9
p78
L2968L
sV372.45
p79
L8648L
sV258.02
p80
L8569L
sV374.01
p81
L3727L
sV224.6
p82
L3583L
sVV58.44
p83
L536L
sV824.1
p84
L6570L
sV915.7
p85
L8385L
sVV40.39
p86
L1649L
sV756.79
p87
L7397L
sV780.57
p88
L767L
sV519.4
p89
L1940L
sV365.01
p90
L811L
sV475
p91
L3224L
sV330.9
p92
L6149L
sV784.40
p93
L4700L
sV569.85
p94
L3554L
sV496
p95
L185L
sVE850.3
p96
L8463L
sV846.9
p97
L1737L
sV910.8
p98
L3977L
sV228.03
p99
L6313L
sV950.0
p100
L5786L
sV719.48
p101
L1323L
sV362.50
p102
L2567L
sV053.71
p103
L8553L
sV173.40
p104
L6382L
sV488.89
p105
L5438L
sV717.82
p106
L6085L
sV360.11
p107
L7955L
sVV54.21
p108
L7833L
sV304.01
p109
L201L
sV266.2
p110
L922L
sV727.02
p111
L3586L
sV298.9
p112
L974L
sV756.11
p113
L3450L
sVV56.8
p114
L3229L
sV628.3
p115
L6450L
sV200.51
p116
L7931L
sV401
p117
L8459L
sV789.62
p118
L5225L
sV293.0
p119
L1560L
sV780.56
p120
L5969L
sV295.02
p121
L4162L
sV943.10
p122
L8076L
sV754.70
p123
L3407L
sV714.1
p124
L1421L
sV656.31
p125
L5805L
sV953.2
p126
L1438L
sV379.43
p127
L2230L
sV348.1
p128
L430L
sVV12.59
p129
L486L
sVV66.9
p130
L3590L
sV366.46
p131
L7285L
sV324.0
p132
L2202L
sV379.22
p133
L2791L
sV356.0
p134
L5171L
sV758.33
p135
L5229L
sV309.3
p136
L2686L
sV785.0
p137
L452L
sV745.11
p138
L7362L
sVV15.07
p139
L1864L
sV799.25
p140
L8259L
sVV58.2
p141
L6167L
sVE910.9
p142
L8607L
sV253.5
p143
L6191L
sV283.10
p144
L7087L
sV574.81
p145
L8324L
sV945.36
p146
L8286L
sV707.00
p147
L627L
sV133.8
p148
L8568L
sV770.81
p149
L3090L
sV873.30
p150
L7385L
sV536.40
p151
L2217L
sV312.01
p152
L431L
sV372.01
p153
L4918L
sVV50.41
p154
L4249L
sV145.4
p155
L6638L
sV786.07
p156
L171L
sV528.09
p157
L5902L
sV719.44
p158
L615L
sVV65.42
p159
L1031L
sV091.3
p160
L7619L
sV562.10
p161
L357L
sV588.81
p162
L524L
sV174.4
p163
L1487L
sV847.1
p164
L1702L
sV521.35
p165
L6908L
sVV04.2
p166
L4086L
sV522.1
p167
L3347L
sV788.30
p168
L409L
sV530.4
p169
L4776L
sV622.10
p170
L2648L
sV568.81
p171
L4963L
sV370.33
p172
L1869L
sV788.35
p173
L8039L
sVE007.5
p174
L6827L
sV799.59
p175
L441L
sV189.3
p176
L7646L
sV724.2
p177
L108L
sV789.39
p178
L533L
sV289.0
p179
L434L
sV372.03
p180
L3726L
sVV04.1
p181
L8106L
sV842.12
p182
L2602L
sV364.71
p183
L6063L
sV724.03
p184
L1376L
sV787.20
p185
L133L
sV759.5
p186
L6471L
sV933.1
p187
L2122L
sV824.5
p188
L3166L
sV752.34
p189
L8184L
sV965.01
p190
L2540L
sV171.7
p191
L7124L
sV294.0
p192
L144L
sV374.14
p193
L6391L
sV719.06
p194
L10L
sV665.83
p195
L6076L
sV366.8
p196
L2077L
sVV05.1
p197
L7091L
sV607.83
p198
L6454L
sV719.88
p199
L2480L
sV640.90
p200
L5299L
sV7999
p201
L152L
sV733.29
p202
L5370L
sV569.0
p203
L2655L
sV304.60
p204
L3492L
sVV52.8
p205
L5464L
sVV42.3
p206
L4602L
sV909.5
p207
L6429L
sV099.8
p208
L6576L
sV995.54
p209
L6531L
sV938
p210
L4900L
sV435.8
p211
L2324L
sV225.0
p212
L1956L
sV716.80
p213
L3571L
sV296.90
p214
L211L
sV627.4
p215
L1499L
sV524.53
p216
L8242L
sVV42.2
p217
L3352L
sVV49.81
p218
L368L
sV971.1
p219
L5174L
sV735.2
p220
L861L
sV923.01
p221
L6194L
sV706.0
p222
L5863L
sV821.39
p223
L6565L
sV783.22
p224
L1916L
sV717.42
p225
L6029L
sVV74.3
p226
L3927L
sV523.21
p227
L5838L
sV434.00
p228
L2320L
sV357.9
p229
L1182L
sV781.3
p230
L26L
sV997.00
p231
L3925L
sV956.9
p232
L8303L
sV789.64
p233
L3351L
sV429.5
p234
L7336L
sV775.4
p235
L6344L
sV379.93
p236
L1764L
sV564.0
p237
L4615L
sV371.24
p238
L7728L
sV721.2
p239
L380L
sV719.36
p240
L5507L
sV627.0
p241
L3368L
sV337.3
p242
L5961L
sV719.34
p243
L8666L
sV249.9
p244
L6448L
sVE917.0
p245
L5663L
sV995.81
p246
L1934L
sV718.25
p247
L8600L
sV200.77
p248
L5812L
sV761.4
p249
L7194L
sV339.89
p250
L2908L
sVV26.32
p251
L8451L
sVE813.7
p252
L3988L
sVE029.9
p253
L4355L
sV435.1
p254
L6926L
sV233.31
p255
L2649L
sV277.7
p256
L2092L
sV536.49
p257
L1406L
sV491.0
p258
L147L
sV879.4
p259
L2184L
sV443.29
p260
L6833L
sV845.00
p261
L569L
sV851.41
p262
L8239L
sV914.6
p263
L3290L
sV730.86
p264
L6872L
sV658.40
p265
L8410L
sVV76.19
p266
L2667L
sVV14.3
p267
L920L
sV854.16
p268
L5808L
sV913.9
p269
L8183L
sV813.40
p270
L6256L
sV230.1
p271
L6789L
sV787.7
p272
L4170L
sV907.4
p273
L5644L
sV218.0
p274
L2101L
sV369.11
p275
L6782L
sV615.1
p276
L8120L
sV840.3
p277
L4013L
sV787.0
p278
L6170L
sVV48.8
p279
L8680L
sV930.9
p280
L5770L
sVV71.9
p281
L1808L
sV232.6
p282
L4088L
sV198.2
p283
L2260L
sV381.50
p284
L7772L
sV721.91
p285
L5534L
sV739.0
p286
L7220L
sV995.1
p287
L3771L
sV192.3
p288
L7093L
sV765.16
p289
L8309L
sV877.0
p290
L2542L
sV493.82
p291
L2292L
sV897.0
p292
L1195L
sVV77.3
p293
L8218L
sVE878.8
p294
L745L
sV760.2
p295
L5564L
sV870
p296
L5352L
sVV77.99
p297
L2091L
sV370.01
p298
L5113L
sV692.81
p299
L7156L
sV252.01
p300
L365L
sVV69.1
p301
L4273L
sV315.5
p302
L1419L
sVV58.71
p303
L5102L
sV952.15
p304
L6600L
sV814.11
p305
L5756L
sV805.6
p306
L2964L
sV959.01
p307
L348L
sVV17.89
p308
L7438L
sV173.71
p309
L7350L
sV537.89
p310
L1293L
sV994.9
p311
L5178L
sV282.69
p312
L3101L
sV952.02
p313
L7686L
sVV53.2
p314
L1336L
sV256.8
p315
L1790L
sV446.0
p316
L3095L
sV403.01
p317
L3999L
sV583.81
p318
L538L
sV727.05
p319
L2798L
sV366.53
p320
L1513L
sV536.9
p321
L1361L
sVV13.21
p322
L5848L
sV666.20
p323
L8131L
sV825.30
p324
L6088L
sV372.10
p325
L4734L
sV789.49
p326
L7129L
sV716.34
p327
L5933L
sVV71.89
p328
L111L
sV707.25
p329
L1546L
sVV54.11
p330
L1618L
sV455.2
p331
L2425L
sV753.22
p332
L1349L
sV397.9
p333
L7133L
sV680.4
p334
L7299L
sV250.51
p335
L2768L
sV285.9
p336
L567L
sV976.0
p337
L4985L
sV374.05
p338
L1601L
sV478.8
p339
L6620L
sV521.01
p340
L7782L
sV373.32
p341
L4342L
sV377.39
p342
L4666L
sV337.29
p343
L5619L
sV433.01
p344
L6785L
sV760.8
p345
L4907L
sV353.4
p346
L2399L
sV008.69
p347
L6933L
sV282.8
p348
L6178L
sVV44.50
p349
L4429L
sV306.2
p350
L5210L
sV963.5
p351
L4604L
sV686.8
p352
L754L
sV050.0
p353
L5273L
sV379.01
p354
L6331L
sV194.8
p355
L3574L
sV842.02
p356
L6506L
sV173.99
p357
L7248L
sVE004.9
p358
L5184L
sV737.12
p359
L4313L
sV649.33
p360
L5603L
sV361.89
p361
L6043L
sV333.6
p362
L7626L
sV975.3
p363
L4106L
sVE884.3
p364
L2311L
sV745.5
p365
L2322L
sVV43.62
p366
L5661L
sV955.6
p367
L7692L
sV681.01
p368
L4999L
sVV23.42
p369
L7341L
sV708.4
p370
L7966L
sV991.8
p371
L4712L
sV484.6
p372
L7754L
sV719.56
p373
L1194L
sV365.41
p374
L7592L
sV221.2
p375
L6165L
sV478.11
p376
L3438L
sV201.51
p377
L7225L
sV726.90
p378
L1534L
sV778.5
p379
L8686L
sV526.81
p380
L4388L
sV712.36
p381
L4966L
sV793.91
p382
L1526L
sV362.34
p383
L508L
sV302.70
p384
L4657L
sV989.9
p385
L2967L
sV276.69
p386
L1059L
sV008.43
p387
L6741L
sV530.87
p388
L6219L
sV250.50
p389
L87L
sV754.89
p390
L6090L
sVV90.10
p391
L4322L
sV902.31
p392
L7505L
sV998.83
p393
L1517L
sV717.40
p394
L5860L
sV530.86
p395
L7206L
sV955.1
p396
L5650L
sV380.31
p397
L5411L
sV753.15
p398
L3650L
sV425.1
p399
L7177L
sV622.4
p400
L5277L
sV736.39
p401
L2572L
sV173.69
p402
L6541L
sV622.12
p403
L7561L
sV296.41
p404
L2050L
sV369.02
p405
L7702L
sV610.1
p406
L1744L
sV173
p407
L8637L
sV812.09
p408
L592L
sV848.3
p409
L3851L
sV865.04
p410
L6968L
sV278.1
p411
L2510L
sV301.6
p412
L5702L
sV952.03
p413
L7997L
sV845.11
p414
L6022L
sV723.8
p415
L2993L
sV577.0
p416
L559L
sV863.49
p417
L6107L
sV444.9
p418
L1159L
sV170.9
p419
L5732L
sV292.84
p420
L1143L
sV784.59
p421
L995L
sV527.9
p422
L3894L
sV368.34
p423
L4360L
sVV25.13
p424
L2201L
sV727.1
p425
L1485L
sV716.36
p426
L3939L
sV368.16
p427
L1725L
sVV40.31
p428
L3725L
sV385.21
p429
L3807L
sV874.8
p430
L3693L
sVE949.6
p431
L5367L
sV037
p432
L6605L
sV603.1
p433
L8499L
sV803.06
p434
L8077L
sV820.32
p435
L7205L
sV880.01
p436
L6993L
sV473.9
p437
L868L
sV295.50
p438
L4823L
sV309.21
p439
L7917L
sV730.95
p440
L5949L
sV718.98
p441
L5026L
sV733.49
p442
L2702L
sVV10.3
p443
L137L
sV460
p444
L1227L
sVV65.45
p445
L5395L
sV136.1
p446
L3625L
sV996.61
p447
L6321L
sV564.02
p448
L5839L
sVV84.01
p449
L1491L
sV786.05
p450
L142L
sV823.30
p451
L6990L
sV511.81
p452
L4838L
sV631
p453
L8373L
sV582.4
p454
L7333L
sV807.2
p455
L3841L
sV535.71
p456
L7053L
sV266.1
p457
L3707L
sV780.66
p458
L7215L
sV734
p459
L1870L
sV715.17
p460
L2079L
sVV74.2
p461
L7174L
sV238.6
p462
L5748L
sV148.9
p463
L6636L
sV373.2
p464
L1431L
sV814.07
p465
L2927L
sV297.2
p466
L7016L
sV523.11
p467
L8214L
sVE858.1
p468
L7574L
sV971.3
p469
L3497L
sV061
p470
L8260L
sV758.1
p471
L8078L
sV379.51
p472
L4358L
sV200.70
p473
L2223L
sV331.5
p474
L3890L
sVE912
p475
L5716L
sV161.0
p476
L7104L
sV438.21
p477
L1699L
sV617.1
p478
L6792L
sV523.20
p479
L5911L
sV386.42
p480
L2775L
sV404.1
p481
L2724L
sV642.03
p482
L2845L
sVV58.66
p483
L1645L
sV209.71
p484
L3314L
sV806.05
p485
L7996L
sV229.8
p486
L4655L
sV648.22
p487
L1236L
sV965.61
p488
L2819L
sV455.5
p489
L678L
sV294.10
p490
L151L
sV349.2
p491
L7120L
sVE968.5
p492
L5877L
sV274.01
p493
L2037L
sVE953.8
p494
L6183L
sV652.93
p495
L7176L
sVE007.3
p496
L5304L
sV560.9
p497
L427L
sV532.70
p498
L6059L
sV378.51
p499
L2861L
sV615.0
p500
L6280L
sV304.92
p501
L7965L
sV789.42
p502
L8455L
sV253.2
p503
L2278L
sV795.14
p504
L7425L
sVE906.0
p505
L4709L
sV716.49
p506
L1959L
sV719.27
p507
L2376L
sVV81.2
p508
L3359L
sV337.0
p509
L8338L
sV530.5
p510
L2316L
sV396.8
p511
L6590L
sV571.1
p512
L804L
sV808.44
p513
L5474L
sV696.2
p514
L4057L
sV295.84
p515
L4222L
sV728.6
p516
L4827L
sV117.8
p517
L7734L
sV274.00
p518
L1327L
sV873.32
p519
L6676L
sV376.32
p520
L5696L
sV765.26
p521
L8215L
sVV52.3
p522
L1966L
sV371.71
p523
L6273L
sV298.0
p524
L4765L
sV820.03
p525
L3339L
sVE853.2
p526
L2871L
sVV44.8
p527
L1357L
sV309.4
p528
L4275L
sV296.54
p529
L2911L
sV202.88
p530
L2208L
sV170.1
p531
L7460L
sV371.42
p532
L2129L
sV316
p533
L4260L
sV788.43
p534
L518L
sVV72.19
p535
L3522L
sV617.3
p536
L3908L
sV726.33
p537
L1926L
sV396.32
p538
L5788L
sV338.28
p539
L352L
sV698.0
p540
L3665L
sV846.0
p541
L1137L
sV213.9
p542
L6055L
sV348.31
p543
L2707L
sV580.89
p544
L5371L
sVV45.76
p545
L4526L
sV345.90
p546
L15L
sV863.21
p547
L7144L
sV719.16
p548
L6683L
sV296.62
p549
L1474L
sVV65.44
p550
L4365L
sV758.9
p551
L3039L
sV250.32
p552
L2789L
sV711.08
p553
L6198L
sV110.5
p554
L1780L
sVV53.7
p555
L3937L
sV058.11
p556
L8193L
sVE885.9
p557
L209L
sV346.82
p558
L6065L
sV038.11
p559
L2284L
sVE958.5
p560
L7077L
sV785.3
p561
L6937L
sVV82.79
p562
L6679L
sV532.10
p563
L4572L
sV794.6
p564
L2019L
sVE858.9
p565
L5363L
sV564.1
p566
L842L
sV793.81
p567
L2239L
sVV54.82
p568
L1530L
sV366.14
p569
L1724L
sV474.9
p570
L6577L
sV444.1
p571
L4730L
sV739.4
p572
L2240L
sVE922.0
p573
L8547L
sV339.83
p574
L6234L
sV751.2
p575
L329L
sV911
p576
L8304L
sV813.91
p577
L5657L
sV789.69
p578
L3261L
sV676.64
p579
L3124L
sV905.3
p580
L5135L
sV831.09
p581
L7452L
sV337.21
p582
L4292L
sV305.81
p583
L7270L
sV962.0
p584
L5773L
sV702.11
p585
L1608L
sV731.8
p586
L1118L
sV008.5
p587
L2644L
sV218.1
p588
L2100L
sV923.02
p589
L7573L
sV367.9
p590
L540L
sV379.56
p591
L4618L
sV211.4
p592
L1768L
sV915.4
p593
L7867L
sV360.89
p594
L5183L
sV653.93
p595
L7175L
sV210.8
p596
L3683L
sV331.9
p597
L18L
sV656.23
p598
L4417L
sVE007.0
p599
L4927L
sV780.9
p600
L7967L
sVV45.85
p601
L2148L
sV438.9
p602
L1205L
sV288.3
p603
L3377L
sV885.1
p604
L8061L
sV488.81
p605
L1781L
sV214.8
p606
L2357L
sVV02.69
p607
L7420L
sV743.33
p608
L8565L
sV443.81
p609
L1185L
sV336.2
p610
L8279L
sV786.6
p611
L1148L
sV246.9
p612
L930L
sV301.10
p613
L5762L
sVV63.9
p614
L1219L
sV770.89
p615
L5315L
sV250.83
p616
L1667L
sV996.67
p617
L1520L
sV776.7
p618
L5086L
sVV25.03
p619
L4746L
sV365.02
p620
L1852L
sV429.71
p621
L4831L
sV524.51
p622
L4314L
sV410.32
p623
L7679L
sV456.8
p624
L3733L
sVV57.9
p625
L5414L
sVV71.1
p626
L832L
sVV12.52
p627
L5050L
sV304.03
p628
L1849L
sV727.81
p629
L1326L
sV385.03
p630
L7022L
sVV73.88
p631
L2069L
sV388.45
p632
L5818L
sV715.35
p633
L1041L
sVV62.3
p634
L4937L
sV614.2
p635
L3698L
sV789.36
p636
L5424L
sV053.19
p637
L860L
sV200.46
p638
L6376L
sV361.31
p639
L7L
sV754.40
p640
L8057L
sV753.29
p641
L3023L
sV303.93
p642
L1077L
sV675.11
p643
L6278L
sVE828.0
p644
L8081L
sV873.0
p645
L498L
sV359.29
p646
L8128L
sV341.20
p647
L7112L
sV789.60
p648
L3116L
sVE006.4
p649
L5562L
sV432.1
p650
L41L
sV307.89
p651
L1806L
sV493.2
p652
L2867L
sVV54.12
p653
L2420L
sV255.41
p654
L338L
sVV17.81
p655
L5899L
sVV15.29
p656
L1307L
sV567.89
p657
L4237L
sV905.5
p658
L3824L
sV903.9
p659
L5921L
sV374.86
p660
L2170L
sV041.2
p661
L1572L
sV381.19
p662
L6678L
sV041.7
p663
L1672L
sV327.51
p664
L841L
sV312.4
p665
L6974L
sV209.64
p666
L6751L
sV079.2
p667
L7207L
sVV42.6
p668
L3466L
sVV45.12
p669
L2777L
sV465.0
p670
L3097L
sV733.98
p671
L4803L
sV327.24
p672
L1779L
sV576.3
p673
L8144L
sVV50.2
p674
L5343L
sV285.1
p675
L714L
sV410.50
p676
L7990L
sV674.30
p677
L5435L
sV756.6
p678
L4636L
sV996.44
p679
L4114L
sV079.99
p680
L1340L
sV944.41
p681
L7610L
sV362.57
p682
L1338L
sV016.95
p683
L6851L
sVE988.9
p684
L64L
sV599.2
p685
L5958L
sV079.53
p686
L3422L
sVV85.43
p687
L3211L
sV933.0
p688
L5490L
sV715.27
p689
L7979L
sV102.2
p690
L8475L
sV079.89
p691
L3578L
sV576.4
p692
L7711L
sV569.89
p693
L1371L
sV948.20
p694
L7980L
sV295.64
p695
L4219L
sVE825.8
p696
L7784L
sV639.1
p697
L8211L
sV626.3
p698
L6244L
sV640.93
p699
L4195L
sV844.3
p700
L7954L
sVV13.22
p701
L5759L
sV929.0
p702
L8583L
sV276.50
p703
L880L
sV453.50
p704
L906L
sV795.81
p705
L2252L
sV820.01
p706
L6354L
sV716.16
p707
L2680L
sV222.2
p708
L3876L
sV719.66
p709
L1717L
sV746.6
p710
L2114L
sV845.03
p711
L2550L
sV646.61
p712
L5803L
sV427.31
p713
L673L
sV720.89
p714
L2097L
sV715.16
p715
L117L
sV115.09
p716
L7444L
sVV15.08
p717
L2173L
sV296.26
p718
L5864L
sV788.20
p719
L467L
sV648.90
p720
L5602L
sVV42.4
p721
L6591L
sVV72.12
p722
L8587L
sV825.22
p723
L5626L
sV345.70
p724
L7403L
sVV40.9
p725
L3451L
sV873.21
p726
L5596L
sV789.41
p727
L8435L
sV368.02
p728
L4286L
sV844.8
p729
L847L
sV643.93
p730
L1991L
sV296.42
p731
L2497L
sV748.4
p732
L7233L
sVV73.5
p733
L7880L
sV813.01
p734
L3842L
sVV05.4
p735
L3901L
sV438.82
p736
L3309L
sV280.9
p737
L173L
sVV55.9
p738
L4426L
sV447.3
p739
L8361L
sV597.0
p740
L7230L
sV286.3
p741
L3847L
sV624.09
p742
L1273L
sV789.35
p743
L4916L
sV718.84
p744
L3667L
sV410.81
p745
L8187L
sV491.2
p746
L5781L
sV780.72
p747
L1551L
sV769
p748
L2828L
sV658.23
p749
L5739L
sV999.5
p750
L8421L
sV360.01
p751
L4254L
sV815.10
p752
L8495L
sV560.0
p753
L3856L
sV646.33
p754
L6367L
sV904.41
p755
L6508L
sV812.10
p756
L8210L
sV530.12
p757
L3795L
sV424.99
p758
L4304L
sV278.03
p759
L4220L
sV602.2
p760
L6408L
sVE849.7
p761
L2734L
sVV67.3
p762
L6113L
sVV22.0
p763
L1043L
sV362.89
p764
L5017L
sV945.02
p765
L1640L
sVE813.1
p766
L2716L
sV785.52
p767
L826L
sV733.10
p768
L5268L
sV719.96
p769
L287L
sV368.13
p770
L2815L
sV724.4
p771
L213L
sV707.8
p772
L2270L
sV375.20
p773
L2515L
sV969.02
p774
L7216L
sV646.53
p775
L6936L
sVV70.4
p776
L688L
sV941.06
p777
L7449L
sV368.01
p778
L3938L
sV747.32
p779
L7802L
sV380.21
p780
L3342L
sV041.12
p781
L1085L
sV735.4
p782
L385L
sV658.43
p783
L8411L
sV923.20
p784
L1331L
sV786.04
p785
L6446L
sV879.0
p786
L1710L
sV750.29
p787
L7399L
sV845.13
p788
L3603L
sVV76.52
p789
L5668L
sV581.89
p790
L4168L
sV649.10
p791
L8263L
sV366.19
p792
L1261L
sV352.9
p793
L5575L
sV944.18
p794
L6474L
sVV03.2
p795
L5916L
sV533.11
p796
L7265L
sVE849.0
p797
L482L
sV256.9
p798
L6086L
sV620.2
p799
L320L
sV873.69
p800
L3810L
sV633.10
p801
L2044L
sV440.32
p802
L8117L
sV746.86
p803
L6859L
sV647.91
p804
L6243L
sV523.9
p805
L1846L
sV760.75
p806
L7591L
sV389.03
p807
L4994L
sV718.36
p808
L2820L
sV272.40
p809
L8636L
sV518.3
p810
L2755L
sV299.01
p811
L8008L
sV556.5
p812
L6447L
sV599.4
p813
L7261L
sV864.05
p814
L7279L
sV911.0
p815
L2371L
sV614.8
p816
L703L
sV788.39
p817
L2511L
sVV14.0
p818
L787L
sV305.91
p819
L3203L
sVE819.1
p820
L2731L
sV736.79
p821
L2526L
sV940.0
p822
L6595L
sV372.22
p823
L4516L
sV865.09
p824
L4978L
sV556.0
p825
L4405L
sV788.1
p826
L242L
sV348.4
p827
L3633L
sVV20.2
p828
L566L
sV307.80
p829
L5391L
sV813.23
p830
L3845L
sV291.1
p831
L4872L
sV198.3
p832
L3624L
sV581.2
p833
L7218L
sV736.09
p834
L5665L
sV654.93
p835
L3752L
sV300.20
p836
L4004L
sVV64.3
p837
L1606L
sV580.4
p838
L5114L
sV305.62
p839
L2812L
sV208.00
p840
L1792L
sV912.8
p841
L7277L
sV236.0
p842
L3905L
sVE950.2
p843
L5419L
sV569.49
p844
L321L
sV729.71
p845
L5179L
sV998.11
p846
L746L
sV272.7
p847
L5018L
sV078.89
p848
L3376L
sV313.0
p849
L4385L
sV099.40
p850
L4605L
sV743.63
p851
L7044L
sVV58.67
p852
L93L
sV217
p853
L2522L
sV742.59
p854
L4541L
sV478.5
p855
L2365L
sV743.62
p856
L7529L
sV634.40
p857
L5823L
sV623.1
p858
L6121L
sV250.10
p859
L1801L
sV305.52
p860
L4061L
sV595.0
p861
L620L
sV296.66
p862
L474L
sVV11.0
p863
L2709L
sV212.2
p864
L5222L
sV944.36
p865
L8290L
sV170.6
p866
L6507L
sVE019.9
p867
L6863L
sV848.40
p868
L5454L
sV136.9
p869
L454L
sV295.70
p870
L660L
sV785.6
p871
L700L
sV009.2
p872
L3304L
sV449
p873
L4452L
sV714.9
p874
L1486L
sV626.4
p875
L2345L
sV661.93
p876
L1993L
sV813.33
p877
L6197L
sVV45.82
p878
L771L
sV910.1
p879
L5039L
sV998.82
p880
L4558L
sVV15.87
p881
L8300L
sV648.14
p882
L6726L
sVE812.7
p883
L7136L
sV977.9
p884
L991L
sV748.8
p885
L7807L
sVV66.7
p886
L3660L
sVV10.51
p887
L3998L
sVV10.52
p888
L1853L
sV139.8
p889
L7018L
sV865.12
p890
L8037L
sV784.49
p891
L2308L
sV657.00
p892
L8267L
sV312.32
p893
L6836L
sV621.32
p894
L3168L
sVV55.6
p895
L3233L
sV440.0
p896
L491L
sV786.03
p897
L971L
sVV64.03
p898
L6958L
sV569.69
p899
L345L
sV410.92
p900
L4308L
sV279.52
p901
L7919L
sV464.31
p902
L7796L
sV402.90
p903
L1102L
sV716.81
p904
L5678L
sV719.08
p905
L280L
sV202.10
p906
L5824L
sV730.03
p907
L6757L
sV079.6
p908
L2277L
sV814.00
p909
L2413L
sV360.43
p910
L5991L
sV174.2
p911
L2432L
sV455.3
p912
L1208L
sV424.3
p913
L3608L
sV575.8
p914
L1175L
sV202.85
p915
L7431L
sV737.42
p916
L8626L
sV757.4
p917
L4147L
sV770.82
p918
L8004L
sVE944.4
p919
L8265L
sV996.84
p920
L7405L
sVV67.01
p921
L7240L
sV756.70
p922
L8040L
sV303.03
p923
L6528L
sV726.60
p924
L2300L
sVV26.49
p925
L2666L
sV716.22
p926
L5477L
sV904.8
p927
L4374L
sV812.43
p928
L6585L
sV239.9
p929
L2566L
sV649.01
p930
L5434L
sV781.7
p931
L3156L
sV576.8
p932
L563L
sV645.11
p933
L8087L
sV730.94
p934
L6050L
sV878.6
p935
L6323L
sV756.73
p936
L4941L
sV730.04
p937
L2190L
sV953.5
p938
L7393L
sV726.0
p939
L2419L
sV723.1
p940
L510L
sV373.11
p941
L1433L
sV736.31
p942
L4128L
sV943.00
p943
L7288L
sV805.08
p944
L6567L
sV658.10
p945
L7488L
sV620.4
p946
L7244L
sV425.11
p947
L3494L
sV575.5
p948
L4006L
sV890.1
p949
L750L
sV665.81
p950
L5909L
sV789.05
p951
L408L
sV345.60
p952
L1408L
sV839.06
p953
L6682L
sV047.8
p954
L6010L
sV191.1
p955
L6161L
sV307.59
p956
L6220L
sV078.2
p957
L7379L
sV736.71
p958
L4719L
sV718.71
p959
L6580L
sV960.4
p960
L5787L
sV478.4
p961
L2366L
sV608.89
p962
L3296L
sV603.9
p963
L3165L
sV623.0
p964
L2653L
sV792.0
p965
L5772L
sVV01.1
p966
L2075L
sV643.23
p967
L4328L
sV070.30
p968
L1626L
sV478.29
p969
L1305L
sV942.23
p970
L3505L
sV277.6
p971
L4996L
sV361.9
p972
L4001L
sVV46.8
p973
L5027L
sV305.51
p974
L2745L
sV671.31
p975
L5569L
sV334.2
p976
L7860L
sV308.0
p977
L4212L
sV663.83
p978
L5141L
sV524.81
p979
L7895L
sV342.92
p980
L5349L
sV307.45
p981
L6349L
sVV15.81
p982
L542L
sV836.50
p983
L2090L
sV863.30
p984
L5519L
sV944.22
p985
L7089L
sV225.2
p986
L3099L
sV341.0
p987
L1587L
sV826.0
p988
L1819L
sV375.15
p989
L124L
sV915.6
p990
L5177L
sV008.3
p991
L4025L
sV313.81
p992
L3102L
sV626.8
p993
L1590L
sV838.03
p994
L5813L
sV355.0
p995
L2434L
sV799.
p996
L4016L
sV301.83
p997
L1091L
sV997.2
p998
L5460L
sVE884.2
p999
L2312L
sVV91.03
p1000
L4042L
sVV02.51
p1001
L4050L
sV507.8
p1002
L5687L
sV464.30
p1003
L4213L
sVV24.2
p1004
L3764L
sV305.40
p1005
L661L
sVV05.3
p1006
L1650L
sV596.53
p1007
L7697L
sV383.89
p1008
L3232L
sVV08
p1009
L3419L
sVE826.1
p1010
L5046L
sV361.07
p1011
L4620L
sV365.71
p1012
L2864L
sV315.00
p1013
L1843L
sV295.83
p1014
L3402L
sV794.7
p1015
L8093L
sV273.8
p1016
L830L
sV729.39
p1017
L6206L
sV730.96
p1018
L1529L
sV755.4
p1019
L8653L
sV241.9
p1020
L3437L
sV372.41
p1021
L1761L
sV780.52
p1022
L272L
sV562.12
p1023
L2142L
sV451.19
p1024
L728L
sV242.10
p1025
L7898L
sV823.32
p1026
L8186L
sV780.61
p1027
L2276L
sV516.0
p1028
L8679L
sV539.89
p1029
L6807L
sV706.9
p1030
L8074L
sVE910.4
p1031
L5886L
sV458.21
p1032
L5401L
sV998.59
p1033
L748L
sV579.1
p1034
L7105L
sV371.00
p1035
L2688L
sV832.00
p1036
L6584L
sV649.41
p1037
L4950L
sV362.85
p1038
L8032L
sV571.5
p1039
L581L
sV173.62
p1040
L6040L
sV808.9
p1041
L6103L
sV997.4
p1042
L5541L
sVV13.66
p1043
L8282L
sV890.0
p1044
L600L
sV145.3
p1045
L6640L
sVE937.8
p1046
L6555L
sV921.2
p1047
L4606L
sV747.21
p1048
L6882L
sV366.10
p1049
L603L
sV338.21
p1050
L226L
sV031.0
p1051
L7339L
sV719.70
p1052
L8386L
sV922.4
p1053
L6826L
sV456.0
p1054
L2901L
sV346.10
p1055
L1211L
sVE874.9
p1056
L7123L
sV944.26
p1057
L4399L
sVE920.8
p1058
L500L
sV235.5
p1059
L4349L
sV339.00
p1060
L4544L
sV709.1
p1061
L4788L
sV752.39
p1062
L7209L
sV369.16
p1063
L5152L
sV718.31
p1064
L2975L
sV296.25
p1065
L3222L
sV357.81
p1066
L4262L
sV842.09
p1067
L1629L
sV934.9
p1068
L2539L
sV650
p1069
L2391L
sV491.8
p1070
L3028L
sV376.03
p1071
L7153L
sV236.99
p1072
L6652L
sVV58.83
p1073
L519L
sVE849.4
p1074
L885L
sV881.11
p1075
L2303L
sVE929.9
p1076
L5239L
sV307.40
p1077
L2537L
sV385.33
p1078
L6400L
sV806.20
p1079
L7843L
sV111.0
p1080
L5196L
sVV63.0
p1081
L913L
sVV69.8
p1082
L2061L
sV454.2
p1083
L912L
sV839.8
p1084
L4182L
sVV01.71
p1085
L4894L
sV788.21
p1086
L3177L
sV724.09
p1087
L2797L
sV863.55
p1088
L8516L
sV872.00
p1089
L6626L
sV307.50
p1090
L2465L
sV335.19
p1091
L4461L
sV722.72
p1092
L2953L
sV411.0
p1093
L66L
sV301.13
p1094
L2459L
sV997.72
p1095
L6202L
sV354.0
p1096
L1319L
sVV54.89
p1097
L876L
sV194.0
p1098
L5353L
sV914.2
p1099
L2639L
sV799.22
p1100
L4991L
sV658.11
p1101
L4748L
sVV12.21
p1102
L5740L
sV530.10
p1103
L355L
sV041.42
p1104
L7229L
sV958.7
p1105
L1906L
sV696.8
p1106
L3178L
sV657.01
p1107
L7237L
sV324.1
p1108
L2756L
sV719.80
p1109
L4799L
sV781.5
p1110
L3576L
sV993.2
p1111
L5016L
sV646.31
p1112
L4948L
sV493.21
p1113
L2929L
sV807.04
p1114
L2658L
sV715.94
p1115
L221L
sV388.71
p1116
L1984L
sV347.00
p1117
L1878L
sV385.22
p1118
L5622L
sV719.05
p1119
L738L
sV373.33
p1120
L7912L
sVV17.49
p1121
L1700L
sV292.2
p1122
L4223L
sV917.1
p1123
L190L
sVE858.0
p1124
L864L
sV296.44
p1125
L1120L
sVV54.01
p1126
L2592L
sV803.70
p1127
L8559L
sV276.9
p1128
L831L
sV781.99
p1129
L154L
sV747.63
p1130
L4938L
sV807.10
p1131
L6746L
sV442.89
p1132
L1839L
sV201.98
p1133
L6290L
sV782.2
p1134
L1193L
sV829.0
p1135
L4440L
sV195.3
p1136
L6440L
sV372.42
p1137
L4888L
sVV09.90
p1138
L1093L
sV366.16
p1139
L8L
sVV58.4
p1140
L6100L
sV754.79
p1141
L5526L
sV344.61
p1142
L3239L
sV302.71
p1143
L6552L
sV209.60
p1144
L3896L
sV442.2
p1145
L6740L
sV649.60
p1146
L2043L
sV352.0
p1147
L8154L
sV504
p1148
L6770L
sV814.01
p1149
L3611L
sV663.01
p1150
L7586L
sV941.05
p1151
L7255L
sV729.91
p1152
L3174L
sV524.64
p1153
L5467L
sV977.0
p1154
L1147L
sV756.52
p1155
L6755L
sV374.21
p1156
L8015L
sV941.26
p1157
L7448L
sV079.98
p1158
L4301L
sV711.07
p1159
L2301L
sV424.1
p1160
L2119L
sV906.1
p1161
L1081L
sV752.41
p1162
L7878L
sV890
p1163
L8442L
sV873.72
p1164
L1617L
sV327.20
p1165
L2521L
sV783.2
p1166
L5182L
sV794.2
p1167
L3863L
sV017.96
p1168
L8194L
sV201.58
p1169
L7755L
sV576.0
p1170
L4568L
sV058.10
p1171
L8283L
sV599.69
p1172
L4459L
sV114.3
p1173
L5120L
sV756.51
p1174
L4804L
sV770.2
p1175
L3686L
sV969.09
p1176
L989L
sV330.3
p1177
L2116L
sV767.0
p1178
L6912L
sV746.2
p1179
L4834L
sV371.20
p1180
L4253L
sV517.8
p1181
L5680L
sVE958.9
p1182
L977L
sV893.1
p1183
L2642L
sV784.7
p1184
L60L
sV944.20
p1185
L4401L
sV302.75
p1186
L7388L
sV595.89
p1187
L5019L
sVE878.0
p1188
L3779L
sV209.00
p1189
L3899L
sV959.4
p1190
L1682L
sV718.11
p1191
L6229L
sV669.71
p1192
L1240L
sV659.21
p1193
L7588L
sV299
p1194
L6110L
sV307.22
p1195
L7572L
sV440.24
p1196
L1161L
sV377.34
p1197
L5996L
sVV12.60
p1198
L2557L
sVV59.4
p1199
L6419L
sVV49.1
p1200
L3955L
sV923.8
p1201
L4271L
sVV51.0
p1202
L1501L
sV396.0
p1203
L4022L
sV348.3
p1204
L6688L
sV008.8
p1205
L1024L
sV212.9
p1206
L5224L
sV719.90
p1207
L3010L
sV162.9
p1208
L1775L
sVV10.47
p1209
L4266L
sV839.40
p1210
L7948L
sVV15.89
p1211
L993L
sV937
p1212
L4224L
sV209.17
p1213
L6562L
sVV12.04
p1214
L191L
sVE870.0
p1215
L4688L
sV780.7
p1216
L7949L
sVE942.9
p1217
L3073L
sV626.2
p1218
L1477L
sV674.14
p1219
L8644L
sV999.33
p1220
L2783L
sVE849.9
p1221
L269L
sVE932.0
p1222
L1585L
sV621.30
p1223
L3502L
sV719.26
p1224
L6411L
sV355.79
p1225
L3405L
sVV74.5
p1226
L257L
sV642.73
p1227
L4330L
sV641.91
p1228
L7665L
sV882.2
p1229
L3287L
sV342.10
p1230
L4771L
sVE940.1
p1231
L5833L
sV799.3
p1232
L77L
sV839.05
p1233
L7801L
sV726.71
p1234
L1266L
sV747.40
p1235
L7893L
sV451.89
p1236
L4479L
sV975.4
p1237
L8296L
sV213.7
p1238
L5697L
sV338.3
p1239
L2760L
sV969.70
p1240
L7353L
sVV16.3
p1241
L789L
sV602.0
p1242
L5700L
sV173.29
p1243
L6230L
sVV45.2
p1244
L1409L
sV745.12
p1245
L7363L
sV711.10
p1246
L3567L
sV626.0
p1247
L2145L
sVE872.8
p1248
L8681L
sV626.5
p1249
L5576L
sV008.49
p1250
L5350L
sV718.48
p1251
L5621L
sVV86.0
p1252
L4248L
sV880.00
p1253
L5318L
sV733.96
p1254
L5368L
sV296.45
p1255
L3390L
sV270.6
p1256
L443L
sVV78.9
p1257
L5979L
sV625.79
p1258
L6160L
sV433.31
p1259
L6150L
sV288.62
p1260
L5378L
sV269.8
p1261
L1355L
sV482.41
p1262
L5274L
sV599.70
p1263
L246L
sV459.39
p1264
L8580L
sV721.8
p1265
L1141L
sV054.6
p1266
L6539L
sV695.2
p1267
L7484L
sV784.5
p1268
L7470L
sV184.9
p1269
L6939L
sV604.90
p1270
L3562L
sV414.4
p1271
L5136L
sVV23.85
p1272
L7342L
sV964.2
p1273
L2139L
sV444.81
p1274
L1771L
sVV49.72
p1275
L1668L
sV712.89
p1276
L8539L
sV928.00
p1277
L4439L
sV372.30
p1278
L587L
sV411.81
p1279
L6125L
sV803.00
p1280
L4663L
sVE007.6
p1281
L1735L
sV787.03
p1282
L619L
sV327.22
p1283
L6403L
sV372.54
p1284
L7528L
sV203.00
p1285
L195L
sV969.3
p1286
L4984L
sV523.30
p1287
L5904L
sV758.7
p1288
L6661L
sV290.43
p1289
L3532L
sV348.89
p1290
L35L
sV995.89
p1291
L6724L
sV719.61
p1292
L2678L
sV753.5
p1293
L5514L
sV556.2
p1294
L6925L
sV821.22
p1295
L7465L
sV534.70
p1296
L4860L
sV377.41
p1297
L1664L
sV054.10
p1298
L1992L
sV560.81
p1299
L725L
sV414.8
p1300
L1101L
sV355.9
p1301
L1126L
sV718.89
p1302
L6742L
sV713.1
p1303
L8271L
sV338.11
p1304
L614L
sVV85.54
p1305
L2233L
sV719.94
p1306
L1812L
sV404.00
p1307
L6267L
sVE917.9
p1308
L346L
sV906.0
p1309
L6062L
sVV70.9
p1310
L1683L
sV732.7
p1311
L6097L
sV296.10
p1312
L664L
sV909.3
p1313
L6025L
sV785.2
p1314
L1152L
sV056.71
p1315
L7111L
sVE932.3
p1316
L2934L
sV927.10
p1317
L7454L
sV692.83
p1318
L7676L
sV569.83
p1319
L3063L
sV846.2
p1320
L2560L
sV982.8
p1321
L6840L
sV952.10
p1322
L6114L
sV746.9
p1323
L2730L
sV707.03
p1324
L1547L
sV871.3
p1325
L5073L
sV305.72
p1326
L5834L
sV364.9
p1327
L6410L
sV949.1
p1328
L7554L
sV716.64
p1329
L7359L
sV754.33
p1330
L6699L
sV878.4
p1331
L8216L
sV474.02
p1332
L4905L
sVV87.31
p1333
L2072L
sVV62.5
p1334
L3276L
sV154.1
p1335
L701L
sV516.30
p1336
L4652L
sV379.02
p1337
L8639L
sV642.13
p1338
L6513L
sV552.1
p1339
L2034L
sVE942.6
p1340
L3075L
sV354.1
p1341
L502L
sV427.0
p1342
L1063L
sV173.70
p1343
L3656L
sV823.92
p1344
L5878L
sV254.0
p1345
L8298L
sV708.3
p1346
L6991L
sV531.40
p1347
L2818L
sVE989
p1348
L38L
sV730.08
p1349
L3942L
sVE812.9
p1350
L4085L
sV287.1
p1351
L4571L
sV357.2
p1352
L840L
sV369.74
p1353
L4010L
sV300.23
p1354
L3666L
sV718.92
p1355
L6228L
sV747.61
p1356
L3632L
sVV13.52
p1357
L8000L
sV719.13
p1358
L8454L
sV607.1
p1359
L4353L
sV513.0
p1360
L1061L
sV414.10
p1361
L5389L
sV535.01
p1362
L2743L
sV451.11
p1363
L2681L
sV616.4
p1364
L891L
sV388.42
p1365
L5763L
sV807.03
p1366
L54L
sV655.23
p1367
L4197L
sVV15.42
p1368
L667L
sV619.9
p1369
L7551L
sV391.9
p1370
L7963L
sV793.11
p1371
L961L
sV296.50
p1372
L640L
sV333.90
p1373
L2728L
sV787.2
p1374
L5929L
sVV67.09
p1375
L310L
sV292.85
p1376
L6346L
sV518.1
p1377
L4529L
sV289.6
p1378
L893L
sVV52.2
p1379
L7253L
sV438.19
p1380
L1402L
sV962.6
p1381
L8119L
sV337.22
p1382
L3634L
sVV15.6
p1383
L4206L
sV658.01
p1384
L3761L
sV053.0
p1385
L4347L
sV255.3
p1386
L3384L
sV333.4
p1387
L5180L
sVV61.07
p1388
L3283L
sVV54.81
p1389
L636L
sV453.40
p1390
L778L
sV658.13
p1391
L4186L
sV991.1
p1392
L6304L
sV333.83
p1393
L3991L
sV599.7
p1394
L7764L
sV295.93
p1395
L5837L
sV581.0
p1396
L7142L
sVE008.0
p1397
L7441L
sV620.6
p1398
L6758L
sV360.12
p1399
L3639L
sV456.20
p1400
L2907L
sV848.8
p1401
L2370L
sV173.7
p1402
L8329L
sV532.30
p1403
L6053L
sV530.9
p1404
L465L
sV344.09
p1405
L1561L
sV348.5
p1406
L2379L
sV145.8
p1407
L7657L
sVE906.8
p1408
L5425L
sV170.3
p1409
L6622L
sV440.4
p1410
L1770L
sV721.42
p1411
L1859L
sV386.50
p1412
L5785L
sV786.2
p1413
L55L
sV675.10
p1414
L7812L
sV718.76
p1415
L6999L
sV307.49
p1416
L7810L
sV170.2
p1417
L5671L
sV039.8
p1418
L7922L
sV907.3
p1419
L6956L
sV569.61
p1420
L5907L
sV868.03
p1421
L4660L
sVE853.0
p1422
L7840L
sV722.0
p1423
L378L
sV520.0
p1424
L6479L
sV727.49
p1425
L3739L
sV266.9
p1426
L923L
sV730.37
p1427
L7249L
sV331.11
p1428
L8196L
sV799.02
p1429
L139L
sV944.13
p1430
L8122L
sV775.81
p1431
L7875L
sV438.11
p1432
L165L
sVE030
p1433
L1315L
sV616.11
p1434
L3736L
sV897.4
p1435
L3854L
sV715.97
p1436
L951L
sV878.7
p1437
L7785L
sVV53.50
p1438
L1597L
sV116.0
p1439
L4090L
sVV16.49
p1440
L5525L
sV999.89
p1441
L6057L
sV300.6
p1442
L5749L
sV945.21
p1443
L5766L
sV607.84
p1444
L946L
sV770.84
p1445
L8684L
sV882.1
p1446
L1094L
sV534.90
p1447
L1582L
sV944.23
p1448
L3936L
sV331.3
p1449
L1411L
sV780.95
p1450
L3786L
sV362.01
p1451
L89L
sV382.9
p1452
L447L
sV621.1
p1453
L6314L
sVV12.00
p1454
L5925L
sV571.49
p1455
L1396L
sV359.3
p1456
L7140L
sV751.0
p1457
L7058L
sV680.0
p1458
L5615L
sVV27.1
p1459
L8141L
sV201.01
p1460
L6803L
sV410.12
p1461
L8084L
sV974.5
p1462
L4988L
sV459.0
p1463
L655L
sV730.36
p1464
L8632L
sV273.2
p1465
L2411L
sV999.1
p1466
L6550L
sVV15.41
p1467
L665L
sV296.31
p1468
L3669L
sV194.4
p1469
L3885L
sVE930.9
p1470
L3932L
sV780.94
p1471
L1834L
sV773.1
p1472
L8308L
sVV61.7
p1473
L7109L
sV336.29
p1474
L8598L
sV189.0
p1475
L1851L
sV366.09
p1476
L6201L
sVV54.29
p1477
L4779L
sV840.9
p1478
L1679L
sV488.02
p1479
L5250L
sV652.83
p1480
L7417L
sV517.2
p1481
L5264L
sVV15.9
p1482
L1122L
sV427.32
p1483
L3205L
sV669.21
p1484
L7667L
sVV41.1
p1485
L3629L
sV959.19
p1486
L1008L
sV694.0
p1487
L6136L
sV111.8
p1488
L6245L
sV599.9
p1489
L1370L
sV275.09
p1490
L3159L
sVV66.2
p1491
L722L
sV816.01
p1492
L4590L
sV596.0
p1493
L3280L
sV649.00
p1494
L7689L
sV368.59
p1495
L8417L
sV386.30
p1496
L3155L
sVV04.82
p1497
L3516L
sV196.6
p1498
L5153L
sV093.89
p1499
L7614L
sV433.90
p1500
L3254L
sV376.12
p1501
L4515L
sV722.80
p1502
L2591L
sV149.8
p1503
L6637L
sV585.9
p1504
L525L
sVV90.89
p1505
L2171L
sV364.04
p1506
L8348L
sV996.32
p1507
L4138L
sV495.9
p1508
L822L
sV680.1
p1509
L3598L
sV377.52
p1510
L7540L
sV664.60
p1511
L7732L
sV296.03
p1512
L2599L
sV998.13
p1513
L1739L
sV872.02
p1514
L7170L
sV664.11
p1515
L5568L
sV969.73
p1516
L7683L
sV372.11
p1517
L4896L
sV910.0
p1518
L969L
sV790.94
p1519
L7322L
sVV25.1
p1520
L8342L
sV448.9
p1521
L6338L
sV342.82
p1522
L2477L
sV482.9
p1523
L715L
sV359.21
p1524
L6899L
sV252.8
p1525
L5691L
sV255.6
p1526
L6583L
sV760.1
p1527
L8139L
sV716.13
p1528
L5429L
sV304.80
p1529
L1815L
sV997.02
p1530
L3365L
sVV41.6
p1531
L3307L
sV288.69
p1532
L2492L
sV379.90
p1533
L5242L
sV959.2
p1534
L1244L
sV289.83
p1535
L2474L
sV286.7
p1536
L1294L
sV345.61
p1537
L7433L
sV300.9
p1538
L976L
sV730.19
p1539
L6024L
sV386.11
p1540
L2245L
sVV28.3
p1541
L1901L
sV365.11
p1542
L402L
sV310.2
p1543
L1482L
sV907.5
p1544
L7374L
sV377.14
p1545
L2886L
sV536.42
p1546
L2214L
sV995.21
p1547
L4844L
sV053.29
p1548
L5866L
sV716.54
p1549
L950L
sV355.71
p1550
L3136L
sV789.7
p1551
L3478L
sV995.93
p1552
L3600L
sV136.3
p1553
L7442L
sV362.33
p1554
L2594L
sV986
p1555
L4354L
sV315.34
p1556
L6358L
sV370.31
p1557
L8053L
sV380.23
p1558
L3127L
sV820.9
p1559
L6221L
sV873.40
p1560
L494L
sV622.7
p1561
L3891L
sV710.2
p1562
L1055L
sVE814.9
p1563
L7073L
sV878.2
p1564
L6083L
sV748.2
p1565
L5942L
sVE967.1
p1566
L5303L
sV746.5
p1567
L7968L
sV652.31
p1568
L7491L
sV299.80
p1569
L6864L
sV209.40
p1570
L8617L
sV372.62
p1571
L6819L
sV369.24
p1572
L6975L
sVV06.4
p1573
L1799L
sV173.4
p1574
L4786L
sV996.64
p1575
L1573L
sV041.82
p1576
L7507L
sV945.23
p1577
L8631L
sVV75.4
p1578
L8209L
sV171.8
p1579
L3798L
sV533.20
p1580
L7032L
sVV13.9
p1581
L4065L
sV754.43
p1582
L5597L
sV700
p1583
L1156L
sV282.41
p1584
L8048L
sV478.6
p1585
L3383L
sV897.2
p1586
L1713L
sV641.03
p1587
L5737L
sVE878.1
p1588
L1514L
sV717.2
p1589
L2834L
sV999.59
p1590
L8668L
sV277.02
p1591
L3460L
sV148.8
p1592
L6928L
sV275.0
p1593
L7815L
sV196.8
p1594
L7500L
sV369.10
p1595
L6501L
sV780.96
p1596
L162L
sV373.13
p1597
L598L
sV320.1
p1598
L3370L
sVV12.29
p1599
L2433L
sVV10.21
p1600
L6635L
sV967.9
p1601
L5420L
sV002.0
p1602
L5513L
sVV22.2
p1603
L1464L
sV608.1
p1604
L5128L
sV054.2
p1605
L1884L
sVE941.1
p1606
L8023L
sV880.11
p1607
L5422L
sV914.1
p1608
L1098L
sV718.21
p1609
L7392L
sV835.03
p1610
L5577L
sV994.8
p1611
L2751L
sV959.5
p1612
L2483L
sV943.14
p1613
L7872L
sV365.04
p1614
L3285L
sV202.03
p1615
L2086L
sV414.0
p1616
L6254L
sVV63.1
p1617
L1259L
sV180.9
p1618
L3327L
sV799.99
p1619
L5107L
sV416.8
p1620
L901L
sV349.0
p1621
L3386L
sV458.8
p1622
L2918L
sV727.01
p1623
L6357L
sV281.9
p1624
L1075L
sV594.8
p1625
L4130L
sV525.40
p1626
L2917L
sV524.4
p1627
L5953L
sV851.86
p1628
L5987L
sV793.2
p1629
L1210L
sVE886.9
p1630
L3916L
sV446.5
p1631
L2571L
sV784.51
p1632
L2836L
sV692.75
p1633
L7612L
sV372.52
p1634
L6801L
sV395.0
p1635
L3353L
sV743.69
p1636
L8111L
sV931
p1637
L2613L
sVV14.4
p1638
L2881L
sV521.13
p1639
L8013L
sV695.15
p1640
L4319L
sV811.09
p1641
L3257L
sV754.59
p1642
L3965L
sV718.07
p1643
L8056L
sV279.41
p1644
L8237L
sV239.2
p1645
L3404L
sVV64.1
p1646
L3143L
sV914.7
p1647
L6071L
sV385.24
p1648
L5442L
sV906.7
p1649
L3506L
sV530.82
p1650
L1292L
sV257.2
p1651
L768L
sV922.9
p1652
L4891L
sV727.89
p1653
L4503L
sVV51.8
p1654
L6931L
sV719.42
p1655
L871L
sV726.5
p1656
L857L
sV752.35
p1657
L7210L
sV008.2
p1658
L7308L
sV304.90
p1659
L204L
sV574.31
p1660
L7936L
sV251.1
p1661
L601L
sV435.9
p1662
L1283L
sV231.2
p1663
L5033L
sV173.32
p1664
L4846L
sV748.3
p1665
L4833L
sVE945.7
p1666
L6096L
sV795.2
p1667
L3024L
sV871.2
p1668
L4135L
sV784.61
p1669
L7015L
sV996.47
p1670
L3880L
sV305.32
p1671
L7687L
sV451.1
p1672
L8262L
sV290
p1673
L8460L
sV192.8
p1674
L7122L
sV781.4
p1675
L7381L
sV453.86
p1676
L2029L
sV799.23
p1677
L5816L
sV733.03
p1678
L5280L
sV908.6
p1679
L3907L
sV783.0
p1680
L114L
sV201.10
p1681
L8339L
sV054.43
p1682
L3086L
sV709.8
p1683
L953L
sV950.9
p1684
L5143L
sV290.12
p1685
L8318L
sV758.81
p1686
L6998L
sV139.1
p1687
L6291L
sV965.1
p1688
L4821L
sV736.1
p1689
L6258L
sV593.73
p1690
L2776L
sV894.1
p1691
L2126L
sV604.91
p1692
L7770L
sVV10.03
p1693
L3300L
sV535.30
p1694
L802L
sV516.4
p1695
L846L
sV736.21
p1696
L7834L
sV288.51
p1697
L2824L
sV041.10
p1698
L2643L
sV574.70
p1699
L6108L
sV759.83
p1700
L3974L
sVV45.71
p1701
L788L
sVV15.21
p1702
L6315L
sVE817.9
p1703
L8116L
sV989.84
p1704
L6223L
sV728.11
p1705
L5947L
sVV10.79
p1706
L2087L
sV692.76
p1707
L6387L
sV995.84
p1708
L5008L
sV388.5
p1709
L2279L
sV780.09
p1710
L30L
sV704.1
p1711
L4139L
sV590.81
p1712
L6557L
sV054.8
p1713
L2418L
sV534.30
p1714
L8021L
sV127.2
p1715
L7904L
sV795.13
p1716
L6945L
sV753.3
p1717
L3043L
sV381.02
p1718
L3479L
sVV86.1
p1719
L1488L
sV617.0
p1720
L2693L
sV354.5
p1721
L5450L
sV343.2
p1722
L2614L
sV336.8
p1723
L5666L
sV616.2
p1724
L5040L
sV322.2
p1725
L4727L
sV368.8
p1726
L1291L
sV759.6
p1727
L5698L
sV233.39
p1728
L6977L
sV041.04
p1729
L1367L
sV127.3
p1730
L8436L
sV796.0
p1731
L2817L
sV787.3
p1732
L314L
sV682.0
p1733
L2219L
sV506.9
p1734
L6923L
sV676.50
p1735
L6115L
sV353.1
p1736
L5130L
sVV80.2
p1737
L2609L
sV526.5
p1738
L6017L
sV642.93
p1739
L3201L
sV790.7
p1740
L756L
sV196.5
p1741
L6263L
sV998.3
p1742
L8384L
sV753.4
p1743
L3046L
sV942.02
p1744
L7675L
sV995.92
p1745
L429L
sV389.18
p1746
L2060L
sV211.6
p1747
L5531L
sV188.8
p1748
L6307L
sV202.00
p1749
L782L
sV711.28
p1750
L6423L
sV200.00
p1751
L7605L
sV209.34
p1752
L5826L
sV207.20
p1753
L7198L
sV674.82
p1754
L8633L
sV715.0
p1755
L8649L
sVV66.1
p1756
L4865L
sV265.1
p1757
L2531L
sV176.8
p1758
L5324L
sV718.13
p1759
L7346L
sV669.94
p1760
L8269L
sV850.2
p1761
L8287L
sV813.22
p1762
L2446L
sV172.5
p1763
L2577L
sV668.84
p1764
L8609L
sVV13.00
p1765
L6329L
sV996.39
p1766
L2617L
sV368.43
p1767
L5394L
sV999.2
p1768
L7437L
sVV26.52
p1769
L6788L
sV919.5
p1770
L2978L
sV596.1
p1771
L2254L
sV627.2
p1772
L1134L
sV331.83
p1773
L175L
sV389.21
p1774
L1844L
sVV68.09
p1775
L2479L
sV477.2
p1776
L3420L
sV405.91
p1777
L2290L
sV511.89
p1778
L1065L
sV567.29
p1779
L4600L
sV141.3
p1780
L4885L
sV370.60
p1781
L5543L
sVV10.86
p1782
L6162L
sV602.3
p1783
L8423L
sV783.43
p1784
L2117L
sVE933.0
p1785
L6216L
sV588.0
p1786
L2779L
sV453.85
p1787
L2031L
sV726.4
p1788
L3293L
sV402.9
p1789
L8597L
sV196.2
p1790
L3662L
sV372.12
p1791
L3491L
sV295.72
p1792
L2373L
sVE829.9
p1793
L613L
sV300.22
p1794
L2307L
sV721.41
p1795
L5923L
sV363.33
p1796
L773L
sV232.7
p1797
L5321L
sVE931.4
p1798
L3305L
sV333.82
p1799
L5278L
sV752.0
p1800
L4214L
sV711.04
p1801
L4547L
sV621.5
p1802
L6239L
sV781.2
p1803
L470L
sV279.50
p1804
L5030L
sV790.91
p1805
L4431L
sV990
p1806
L2222L
sV879.3
p1807
L2302L
sV378.55
p1808
L7113L
sV213.0
p1809
L3801L
sV806.29
p1810
L7650L
sV648.31
p1811
L4333L
sV333.85
p1812
L2401L
sV790.29
p1813
L374L
sV583.2
p1814
L4513L
sV367.81
p1815
L4721L
sVE980.6
p1816
L6067L
sV943.35
p1817
L8497L
sV744.02
p1818
L7451L
sVV23.7
p1819
L5198L
sVV78.3
p1820
L8588L
sVV79.9
p1821
L2107L
sV905.0
p1822
L5640L
sVV03.89
p1823
L1428L
sV789.37
p1824
L3395L
sV411.1
p1825
L1388L
sV287.39
p1826
L743L
sV330.1
p1827
L3087L
sVV76.51
p1828
L67L
sV812.03
p1829
L2347L
sV754.30
p1830
L3179L
sV942.25
p1831
L4882L
sV250.31
p1832
L5365L
sV795.4
p1833
L6504L
sV598.00
p1834
L6166L
sV904.9
p1835
L4976L
sV306.53
p1836
L6069L
sV459.9
p1837
L1158L
sV810.00
p1838
L1756L
sV288.01
p1839
L6435L
sVE850.4
p1840
L7775L
sV793.1
p1841
L638L
sV813.07
p1842
L3829L
sV879.9
p1843
L1119L
sV873.8
p1844
L2899L
sV378.83
p1845
L4156L
sV200.83
p1846
L7624L
sV728.1
p1847
L8191L
sV712.20
p1848
L6745L
sV825.31
p1849
L8043L
sVV88.12
p1850
L6204L
sV812.49
p1851
L6048L
sV564.89
p1852
L311L
sV655.33
p1853
L8301L
sV364.75
p1854
L2939L
sV910.2
p1855
L6259L
sV224.1
p1856
L6407L
sV718.94
p1857
L6716L
sV533.60
p1858
L6499L
sV715.80
p1859
L1895L
sV318.2
p1860
L612L
sV286.6
p1861
L4597L
sVE988.3
p1862
L6235L
sV658.03
p1863
L3200L
sV465.8
p1864
L1854L
sV656.93
p1865
L5647L
sVE939.5
p1866
L7858L
sV493.90
p1867
L112L
sV310.9
p1868
L2372L
sV736.75
p1869
L6153L
sV522.6
p1870
L2607L
sV742.9
p1871
L1920L
sV624.3
p1872
L5924L
sV173.5
p1873
L6769L
sV802.29
p1874
L8147L
sV839.08
p1875
L8444L
sVV57.3
p1876
L1401L
sVV28.4
p1877
L4683L
sVV85.22
p1878
L4527L
sV941.16
p1879
L7450L
sV780.8
p1880
L1023L
sV877.1
p1881
L3367L
sV928.21
p1882
L6177L
sVE013.4
p1883
L8086L
sV090.5
p1884
L8231L
sV736.70
p1885
L387L
sV442.83
p1886
L7761L
sV275.2
p1887
L560L
sV537.1
p1888
L2007L
sV632
p1889
L4193L
sV562.02
p1890
L5849L
sV719.43
p1891
L208L
sV459.19
p1892
L8490L
sV765.28
p1893
L8307L
sV945.14
p1894
L7778L
sVV26.33
p1895
L5228L
sV943.01
p1896
L1536L
sV219.1
p1897
L7473L
sV516.31
p1898
L2333L
sVE980.5
p1899
L2206L
sV250.12
p1900
L552L
sV159.1
p1901
L7086L
sV198.6
p1902
L3318L
sV770.13
p1903
L7412L
sVE816.9
p1904
L6904L
sVV67.59
p1905
L918L
sV550.91
p1906
L1946L
sV720.9
p1907
L3082L
sV473.8
p1908
L299L
sVV45.75
p1909
L1721L
sV800.92
p1910
L6589L
sV530.19
p1911
L1025L
sV996.04
p1912
L8593L
sVV19.11
p1913
L6520L
sV318.00
p1914
L7295L
sV388.70
p1915
L123L
sV718.09
p1916
L8514L
sV852.02
p1917
L5810L
sV386.9
p1918
L1688L
sVE013.1
p1919
L4640L
sV386.2
p1920
L2398L
sV682.2
p1921
L1241L
sV290.0
p1922
L1711L
sV357.89
p1923
L5043L
sV666.24
p1924
L4797L
sV927.20
p1925
L5794L
sV590.10
p1926
L238L
sV333.99
p1927
L2830L
sV345.40
p1928
L1754L
sV459.13
p1929
L7301L
sV173.3
p1930
L5064L
sV736.89
p1931
L2923L
sV912.0
p1932
L3133L
sVV45.86
p1933
L1578L
sV339.44
p1934
L7107L
sV712.38
p1935
L5536L
sV512.82
p1936
L4724L
sV041.9
p1937
L333L
sVE968.7
p1938
L4820L
sV759.89
p1939
L1941L
sV387.0
p1940
L5893L
sV729.1
p1941
L370L
sV307.6
p1942
L2505L
sV717.0
p1943
L943L
sV722.82
p1944
L3469L
sVE968.6
p1945
L8145L
sVE850.8
p1946
L7382L
sV941.19
p1947
L8272L
sV263.9
p1948
L448L
sV197.4
p1949
L5537L
sV755.50
p1950
L7051L
sV719.00
p1951
L2714L
sV530.84
p1952
L4172L
sV358.00
p1953
L7030L
sV172.9
p1954
L2576L
sVE894
p1955
L8651L
sVE899
p1956
L3265L
sV995.20
p1957
L1706L
sVV03.81
p1958
L1427L
sV917.2
p1959
L1670L
sV424.90
p1960
L1368L
sV676.90
p1961
L8165L
sV305.60
p1962
L2393L
sV946.2
p1963
L6079L
sV410.30
p1964
L3052L
sV327.09
p1965
L2790L
sV378.72
p1966
L8414L
sV666.14
p1967
L7110L
sV477.9
p1968
L189L
sV317.0
p1969
L6722L
sV980.9
p1970
L5755L
sV648.44
p1971
L2006L
sV727.66
p1972
L5981L
sV516.33
p1973
L8299L
sV386.40
p1974
L7557L
sV719.02
p1975
L2124L
sVV72.41
p1976
L1249L
sV443.22
p1977
L6834L
sV618.5
p1978
L2248L
sVV45.73
p1979
L3074L
sV242.40
p1980
L6005L
sV137.0
p1981
L7852L
sV458.0
p1982
L1831L
sVV41.8
p1983
L3834L
sV852.09
p1984
L6457L
sV293.84
p1985
L2334L
sV718.57
p1986
L4118L
sV737.10
p1987
L1741L
sV614.3
p1988
L2672L
sV837.0
p1989
L3528L
sV802.1
p1990
L5885L
sV715.24
p1991
L5151L
sVV28.82
p1992
L4037L
sV786.50
p1993
L58L
sVV65.40
p1994
L218L
sV365.89
p1995
L3098L
sV944.27
p1996
L4403L
sV242.41
p1997
L8360L
sV593.4
p1998
L532L
sV583.6
p1999
L6805L
sVV79.8
p2000
L2536L
sV410.01
p2001
L4552L
sV307.7
p2002
L3446L
sV521.12
p2003
L6365L
sVE927.9
p2004
L2920L
sVE822.8
p2005
L6987L
sV250.43
p2006
L2296L
sV153.3
p2007
L723L
sV808.42
p2008
L5758L
sV865.03
p2009
L8572L
sV040.0
p2010
L5159L
sV152.8
p2011
L8096L
sV813.54
p2012
L6195L
sVV19.4
p2013
L6737L
sVV23.41
p2014
L2847L
sV041.84
p2015
L1974L
sV891.1
p2016
L279L
sV370.23
p2017
L7054L
sV958.91
p2018
L7455L
sV567.82
p2019
L324L
sV809.0
p2020
L6709L
sVV25.01
p2021
L3138L
sV629.9
p2022
L1524L
sV718.49
p2023
L1552L
sV173.72
p2024
L6952L
sV446.29
p2025
L6738L
sV296.80
p2026
L192L
sV200.20
p2027
L6848L
sVE919.7
p2028
L7715L
sV943.05
p2029
L6869L
sV719.54
p2030
L2417L
sV654.53
p2031
L4949L
sV533.90
p2032
L1027L
sV493.11
p2033
L3992L
sV371.50
p2034
L4151L
sV707.19
p2035
L1189L
sV730.25
p2036
L4233L
sV649.31
p2037
L4953L
sV249.51
p2038
L6205L
sV332.0
p2039
L1569L
sV433.81
p2040
L6372L
sV787.4
p2041
L5980L
sV845.02
p2042
L2952L
sVV85.53
p2043
L4071L
sV011.20
p2044
L4551L
sV386.19
p2045
L630L
sV730.98
p2046
L5948L
sV693.9
p2047
L8226L
sV574.21
p2048
L4100L
sV164.3
p2049
L5674L
sV344.60
p2050
L4560L
sV715.18
p2051
L2078L
sV552.8
p2052
L3680L
sV212.5
p2053
L8613L
sV327.40
p2054
L8316L
sV989.7
p2055
L8563L
sV459.32
p2056
L6038L
sV540.1
p2057
L4239L
sV718.95
p2058
L4432L
sVV58.31
p2059
L182L
sV710.1
p2060
L2180L
sV624.6
p2061
L4920L
sVV90.81
p2062
L3292L
sV520.7
p2063
L8221L
sV171.9
p2064
L5062L
sV453.1
p2065
L8066L
sV747.22
p2066
L5726L
sVV61.04
p2067
L3281L
sV525.51
p2068
L6142L
sV799.4
p2069
L278L
sV795.03
p2070
L3837L
sV304.23
p2071
L4340L
sV994.1
p2072
L3119L
sV574.90
p2073
L1757L
sV161.8
p2074
L5586L
sVV44.0
p2075
L2317L
sVV25.42
p2076
L319L
sV747.60
p2077
L7357L
sV801.20
p2078
L5631L
sVV53.31
p2079
L1543L
sV564.00
p2080
L282L
sV727.64
p2081
L5338L
sVV82.0
p2082
L8655L
sV296.82
p2083
L3272L
sV385.89
p2084
L6464L
sV386.10
p2085
L631L
sV956.0
p2086
L6332L
sVV85.24
p2087
L6047L
sVE878.3
p2088
L2215L
sV794.30
p2089
L984L
sV208.92
p2090
L200L
sV924.5
p2091
L72L
sV302.85
p2092
L5790L
sV185
p2093
L1749L
sV733.91
p2094
L8550L
sV132.1
p2095
L6880L
sV730.12
p2096
L5730L
sVE014.9
p2097
L7735L
sV301.7
p2098
L4352L
sV008.00
p2099
L6151L
sV327.49
p2100
L4533L
sV183.2
p2101
L4060L
sV372.33
p2102
L4133L
sV795.00
p2103
L1905L
sV822.1
p2104
L3355L
sVV73.81
p2105
L2135L
sV200.63
p2106
L6847L
sV770.0
p2107
L7563L
sV861.00
p2108
L6674L
sV780.63
p2109
L6470L
sV944.06
p2110
L7973L
sV381.89
p2111
L5051L
sV366.22
p2112
L2938L
sV649.03
p2113
L2848L
sV425.3
p2114
L2404L
sV686.9
p2115
L277L
sV996.62
p2116
L1369L
sVV59.3
p2117
L4148L
sV965.09
p2118
L2994L
sV271.0
p2119
L7101L
sV843.9
p2120
L1719L
sVE924.8
p2121
L1636L
sV426.13
p2122
L1791L
sV716.47
p2123
L5360L
sV196.3
p2124
L5117L
sV799.2
p2125
L8418L
sV291.2
p2126
L1912L
sV058.81
p2127
L8192L
sVV10.43
p2128
L3121L
sV836.2
p2129
L1223L
sV401.0
p2130
L936L
sV730.29
p2131
L5009L
sV388.32
p2132
L7633L
sV736.00
p2133
L1917L
sV952.09
p2134
L7534L
sV302.74
p2135
L7671L
sV801.26
p2136
L5635L
sV578.1
p2137
L702L
sV429.1
p2138
L7729L
sV795.08
p2139
L6538L
sV765.29
p2140
L5344L
sV719.9
p2141
L8094L
sV426.11
p2142
L1951L
sV123.8
p2143
L2879L
sV711.50
p2144
L8467L
sV790.21
p2145
L793L
sV813.52
p2146
L5002L
sVV16.8
p2147
L3602L
sV575.11
p2148
L1955L
sVE010.2
p2149
L6174L
sV567.9
p2150
L535L
sV321.4
p2151
L7066L
sV410.91
p2152
L2445L
sV715.33
p2153
L668L
sV459.2
p2154
L2026L
sVV85.36
p2155
L3132L
sV852.29
p2156
L7259L
sV718.51
p2157
L6334L
sV296.21
p2158
L3526L
sV780.03
p2159
L2841L
sV823.11
p2160
L6628L
sV079.4
p2161
L5200L
sV098.89
p2162
L5915L
sV434.90
p2163
L2039L
sV997.91
p2164
L2514L
sV249.20
p2165
L3344L
sV910.9
p2166
L7097L
sVV12.41
p2167
L3556L
sV589.0
p2168
L7380L
sVE916
p2169
L2695L
sV284.1
p2170
L2949L
sV575.0
p2171
L3006L
sV375.2
p2172
L7910L
sV924.4
p2173
L3940L
sV307.3
p2174
L5945L
sV380.4
p2175
L17L
sV305.22
p2176
L2811L
sV742.1
p2177
L2729L
sV368.45
p2178
L2525L
sV132.9
p2179
L6672L
sV780.59
p2180
L2280L
sV868.00
p2181
L6120L
sV381.51
p2182
L7771L
sV173.31
p2183
L1341L
sV372.75
p2184
L5656L
sV205.02
p2185
L1796L
sV307.1
p2186
L3805L
sV362.76
p2187
L7589L
sV038.40
p2188
L4522L
sV715.91
p2189
L291L
sV633.80
p2190
L2045L
sV919.7
p2191
L6325L
sV654.11
p2192
L7902L
sV648.30
p2193
L6953L
sVV48.1
p2194
L5098L
sV818.1
p2195
L7467L
sV437.0
p2196
L2327L
sV480.8
p2197
L1778L
sVV10.01
p2198
L7656L
sV251.0
p2199
L3871L
sV730.18
p2200
L1548L
sVE854.2
p2201
L4031L
sV649.14
p2202
L8038L
sV806.69
p2203
L7762L
sV789.3
p2204
L8513L
sV582.0
p2205
L7141L
sV193
p2206
L815L
sV710.5
p2207
L8537L
sV054.11
p2208
L6645L
sV440.30
p2209
L4356L
sV388.9
p2210
L2983L
sV438.12
p2211
L4153L
sVE935.4
p2212
L4914L
sV820.31
p2213
L3401L
sV275.40
p2214
L2635L
sV719.58
p2215
L956L
sVV73.89
p2216
L3429L
sV716.28
p2217
L6695L
sV171.0
p2218
L5777L
sV249.91
p2219
L3911L
sV377.75
p2220
L3857L
sV727.63
p2221
L7903L
sV977.8
p2222
L803L
sV274.10
p2223
L6002L
sV302.6
p2224
L5211L
sVV12.09
p2225
L1180L
sV727.3
p2226
L1389L
sV367.32
p2227
L3655L
sVV76.9
p2228
L3787L
sV277.88
p2229
L8065L
sV531.50
p2230
L4774L
sV789.61
p2231
L3867L
sV564
p2232
L3792L
sV948.10
p2233
L7988L
sV238.0
p2234
L6135L
sV569.1
p2235
L1835L
sV852.26
p2236
L2328L
sVV49.66
p2237
L6351L
sV540.0
p2238
L4240L
sV707.15
p2239
L163L
sV792.9
p2240
L4997L
sV304.71
p2241
L2381L
sV682.6
p2242
L273L
sV953.8
p2243
L5245L
sV723.9
p2244
L824L
sV273.3
p2245
L7134L
sV915.5
p2246
L7718L
sV234.8
p2247
L5067L
sV808.1
p2248
L4665L
sV870.1
p2249
L483L
sVE934.8
p2250
L4183L
sV805.07
p2251
L4731L
sV694.8
p2252
L6452L
sV286.4
p2253
L4960L
sVV58.89
p2254
L919L
sV523.42
p2255
L5495L
sV339.22
p2256
L1687L
sV637.32
p2257
L4897L
sV359.4
p2258
L1345L
sV851.06
p2259
L2857L
sV601.4
p2260
L6335L
sV784.43
p2261
L7416L
sV723.5
p2262
L3614L
sV305.50
p2263
L1011L
sV536.3
p2264
L305L
sVV54.10
p2265
L4578L
sV922.0
p2266
L4629L
sVV72.6
p2267
L1800L
sV301.9
p2268
L1170L
sV916.4
p2269
L2858L
sV279.11
p2270
L4123L
sV273.0
p2271
L3635L
sVE965.4
p2272
L8592L
sV787.9
p2273
L7525L
sV370.52
p2274
L7496L
sV426.52
p2275
L3163L
sV926.8
p2276
L8432L
sV717.3
p2277
L2833L
sVV46.12
p2278
L3038L
sVV55.1
p2279
L155L
sV380.12
p2280
L5252L
sV716.10
p2281
L4490L
sVV12.55
p2282
L1322L
sV305.92
p2283
L5590L
sV363.41
p2284
L7076L
sV362.04
p2285
L1654L
sV730.99
p2286
L7652L
sV601.0
p2287
L3430L
sV711.91
p2288
L5710L
sV996.88
p2289
L5097L
sV360.00
p2290
L2168L
sV717.7
p2291
L933L
sV852.06
p2292
L5811L
sV722.70
p2293
L7644L
sV250.52
p2294
L1108L
sV192.9
p2295
L5669L
sVV58.81
p2296
L446L
sV474.00
p2297
L3480L
sV535.20
p2298
L5511L
sV729.82
p2299
L1675L
sV528.3
p2300
L1082L
sV289.50
p2301
L4903L
sV228.09
p2302
L1050L
sVV49.0
p2303
L4758L
sV523.41
p2304
L2402L
sV995.55
p2305
L2123L
sV397.0
p2306
L2568L
sV482.40
p2307
L4686L
sV942.01
p2308
L8103L
sV491.21
p2309
L217L
sV945.33
p2310
L5376L
sV423.3
p2311
L7414L
sV750.5
p2312
L7434L
sV724.70
p2313
L4704L
sV733.12
p2314
L7720L
sV066.41
p2315
L2637L
sV791.1
p2316
L6621L
sV575.9
p2317
L686L
sVE941.3
p2318
L3072L
sV362.41
p2319
L7315L
sV305.33
p2320
L8274L
sV537.83
p2321
L5409L
sV756.54
p2322
L4866L
sVE015.0
p2323
L4510L
sV198.89
p2324
L2256L
sV333.71
p2325
L4596L
sV784.1
p2326
L1437L
sV608.82
p2327
L8285L
sV241.1
p2328
L786L
sV813.04
p2329
L4750L
sV366.9
p2330
L125L
sV344.30
p2331
L3115L
sV279.3
p2332
L3372L
sV873.49
p2333
L3050L
sV296.46
p2334
L3126L
sV296.35
p2335
L3004L
sV173.91
p2336
L2931L
sV346.52
p2337
L7716L
sV364.41
p2338
L6654L
sV213.6
p2339
L6762L
sV993.0
p2340
L8157L
sV004.9
p2341
L2629L
sV732.3
p2342
L8035L
sV304.30
p2343
L1848L
sV799
p2344
L1930L
sV433.80
p2345
L6955L
sV908.5
p2346
L6845L
sV944.03
p2347
L3501L
sV305.63
p2348
L2970L
sVE825.1
p2349
L6888L
sV358.2
p2350
L8468L
sV371.02
p2351
L5867L
sVV49.70
p2352
L2293L
sV560.30
p2353
L7726L
sV357.3
p2354
L4990L
sV098.59
p2355
L6739L
sV541
p2356
L691L
sV478.70
p2357
L5583L
sVV02.59
p2358
L4593L
sV518.89
p2359
L462L
sV308.2
p2360
L6341L
sVV88.01
p2361
L1953L
sV751.69
p2362
L1021L
sVV68.01
p2363
L2610L
sV996.79
p2364
L3067L
sV739.8
p2365
L3227L
sV300.01
p2366
L264L
sV339.20
p2367
L2956L
sV852.20
p2368
L644L
sV884.1
p2369
L4563L
sV482.83
p2370
L1015L
sV720
p2371
L7707L
sV333.3
p2372
L8019L
sVE939.2
p2373
L7327L
sV744.23
p2374
L8376L
sV736.41
p2375
L2555L
sV943.30
p2376
L6596L
sV866.01
p2377
L3960L
sV823.31
p2378
L8523L
sV315.82
p2379
L8213L
sVV65.9
p2380
L5176L
sV250.8
p2381
L6299L
sV297.0
p2382
L8477L
sV195.0
p2383
L3778L
sV084.0
p2384
L7725L
sV287.32
p2385
L8526L
sV370.20
p2386
L3540L
sV756.15
p2387
L2588L
sVV44.9
p2388
L6950L
sV041.09
p2389
L3343L
sV820.20
p2390
L1723L
sV312.81
p2391
L2746L
sV309.81
p2392
L266L
sV250.6
p2393
L8075L
sV972.6
p2394
L3498L
sVV76.49
p2395
L5110L
sVV12.5
p2396
L4494L
sV447.72
p2397
L4351L
sVE917.5
p2398
L7590L
sV379.50
p2399
L4716L
sV420.0
p2400
L3868L
sV533.31
p2401
L6935L
sV879.6
p2402
L6441L
sV611.3
p2403
L4251L
sV070.6
p2404
L3442L
sV802.0
p2405
L2684L
sV739.7
p2406
L7567L
sV602.9
p2407
L4801L
sV784.3
p2408
L48L
sV753.9
p2409
L4445L
sVE987.0
p2410
L7027L
sV238.8
p2411
L1264L
sV593.81
p2412
L3962L
sV648.11
p2413
L6512L
sV296.05
p2414
L3218L
sVV15.86
p2415
L7042L
sV335.20
p2416
L2630L
sV772.6
p2417
L8142L
sVE969
p2418
L6603L
sV863.45
p2419
L3064L
sV379.8
p2420
L1803L
sVV15.01
p2421
L2344L
sV813.45
p2422
L5559L
sVE976
p2423
L7038L
sV173.92
p2424
L5587L
sV969.01
p2425
L6829L
sV276.2
p2426
L424L
sVV60.9
p2427
L3986L
sV508.1
p2428
L7595L
sVE865.8
p2429
L6077L
sV897.1
p2430
L5769L
sV942.20
p2431
L6666L
sV589.9
p2432
L2209L
sV963.2
p2433
L2960L
sV327.59
p2434
L8280L
sV339.11
p2435
L5896L
sV662.21
p2436
L7668L
sV596.7
p2437
L6598L
sV728.84
p2438
L3475L
sV290.9
p2439
L4173L
sV531.91
p2440
L5482L
sV296.2
p2441
L7710L
sV737.29
p2442
L6420L
sV470
p2443
L1054L
sV941.08
p2444
L7387L
sVV85.45
p2445
L263L
sV518.83
p2446
L464L
sV213.4
p2447
L3410L
sV512.0
p2448
L4346L
sV342.00
p2449
L1708L
sV183.8
p2450
L7957L
sV365.23
p2451
L1862L
sV041.89
p2452
L1571L
sV188.4
p2453
L6014L
sVV81.0
p2454
L3213L
sV517.3
p2455
L8176L
sV944.01
p2456
L7826L
sV374.11
p2457
L1432L
sV756.13
p2458
L5688L
sV255.8
p2459
L5707L
sV735.5
p2460
L6749L
sV008.47
p2461
L7547L
sV191.6
p2462
L4517L
sV733.22
p2463
L7579L
sVV49.74
p2464
L6962L
sV101
p2465
L7900L
sV674.84
p2466
L5216L
sVE917.8
p2467
L3812L
sV757.0
p2468
L2455L
sV784.2
p2469
L411L
sV425.9
p2470
L2282L
sV052.9
p2471
L4798L
sV273.4
p2472
L8465L
sV570
p2473
L3749L
sV170.4
p2474
L5733L
sV621.31
p2475
L3167L
sV519.2
p2476
L8240L
sV908.2
p2477
L2762L
sVV53.59
p2478
L4112L
sV747.42
p2479
L7978L
sV887.2
p2480
L7189L
sV362.73
p2481
L6366L
sV682.8
p2482
L1346L
sV799.9
p2483
L6L
sV451.81
p2484
L5550L
sV626.1
p2485
L2694L
sV965.02
p2486
L4303L
sV649.63
p2487
L4414L
sV843.8
p2488
L2926L
sV840.0
p2489
L3002L
sV706.1
p2490
L1732L
sVV43.1
p2491
L506L
sVV61.29
p2492
L7013L
sV209.61
p2493
L6871L
sV717.81
p2494
L7639L
sVV85.32
p2495
L916L
sV719.98
p2496
L2895L
sVE816.2
p2497
L1639L
sV009.1
p2498
L2948L
sV743.49
p2499
L4837L
sV190.4
p2500
L8403L
sV673.23
p2501
L5282L
sV760.5
p2502
L5735L
sV876.0
p2503
L4236L
sV872.10
p2504
L7844L
sV733.90
p2505
L570L
sV344.04
p2506
L4707L
sV991.4
p2507
L6303L
sV174.5
p2508
L1493L
sV792.2
p2509
L7065L
sV249.01
p2510
L1457L
sV757.33
p2511
L5320L
sVE878.6
p2512
L3255L
sVV15.3
p2513
L1503L
sV455.8
p2514
L4014L
sV652.23
p2515
L5262L
sV374.33
p2516
L6946L
sVE920.4
p2517
L6497L
sV880.09
p2518
L7695L
sVV68.9
p2519
L69L
sVV19.0
p2520
L6963L
sV726.2
p2521
L834L
sVV18.51
p2522
L3772L
sV656.73
p2523
L5111L
sV765.25
p2524
L7765L
sV706.2
p2525
L509L
sV840.5
p2526
L4692L
sV750.19
p2527
L7468L
sV180.0
p2528
L6942L
sV427.60
p2529
L2229L
sV729.89
p2530
L894L
sV821.29
p2531
L5194L
sV123.9
p2532
L5941L
sV565.0
p2533
L2627L
sV945.10
p2534
L4282L
sV301.81
p2535
L7017L
sV289.82
p2536
L5784L
sV733.11
p2537
L3831L
sV258.9
p2538
L1886L
sV148.3
p2539
L6927L
sV538
p2540
L8219L
sV610.4
p2541
L5610L
sV295.91
p2542
L659L
sV170.8
p2543
L6898L
sV070.54
p2544
L647L
sV410.40
p2545
L3827L
sV362.35
p2546
L761L
sV237.1
p2547
L3883L
sV410.70
p2548
L2175L
sV949.3
p2549
L7982L
sV811.00
p2550
L5835L
sV366.13
p2551
L5392L
sV236.91
p2552
L3076L
sV305.02
p2553
L1288L
sV453.4
p2554
L7228L
sV944.21
p2555
L8022L
sV854.00
p2556
L52L
sV995.60
p2557
L3424L
sV438.53
p2558
L7062L
sV556.9
p2559
L3071L
sV661.31
p2560
L2395L
sV776.5
p2561
L7047L
sV077.2
p2562
L5542L
sV726.31
p2563
L3221L
sVE854.0
p2564
L2870L
sV738.4
p2565
L959L
sV727.06
p2566
L1265L
sV821.30
p2567
L6572L
sV398.99
p2568
L8395L
sV628.2
p2569
L8654L
sV941.20
p2570
L5659L
sV571.0
p2571
L813L
sV719.15
p2572
L6232L
sV552.9
p2573
L4378L
sV327.25
p2574
L7515L
sV846.8
p2575
L6905L
sV380.15
p2576
L5745L
sV003.0
p2577
L5112L
sV912.7
p2578
L7814L
sV173.41
p2579
L2888L
sVV80.01
p2580
L6478L
sV941.25
p2581
L6295L
sV756.2
p2582
L6385L
sVE874.4
p2583
L7649L
sV209.79
p2584
L3313L
sV853.09
p2585
L649L
sV3181
p2586
L5887L
sV719.20
p2587
L6549L
sVV58.9
p2588
L3441L
sV173.90
p2589
L3983L
sV911.6
p2590
L2362L
sVV45.09
p2591
L907L
sVV12.71
p2592
L2668L
sV743.31
p2593
L7835L
sV364.53
p2594
L6001L
sV531.71
p2595
L5751L
sV410.22
p2596
L4815L
sVV10.85
p2597
L3797L
sV380.10
p2598
L1290L
sV534.00
p2599
L7640L
sV378.31
p2600
L3622L
sV813.93
p2601
L6196L
sV227.0
p2602
L2247L
sV519.01
p2603
L7674L
sV555.9
p2604
L921L
sV295.75
p2605
L6624L
sV377.01
p2606
L5088L
sV466.19
p2607
L1448L
sV996.1
p2608
L2584L
sV337.00
p2609
L3870L
sV338.19
p2610
L194L
sV216.7
p2611
L1580L
sV250.92
p2612
L523L
sV209.56
p2613
L8159L
sV595.1
p2614
L2337L
sV906.8
p2615
L3507L
sV959.12
p2616
L1944L
sV789.30
p2617
L1727L
sV733.19
p2618
L4092L
sV955.3
p2619
L503L
sV836.1
p2620
L104L
sV736.20
p2621
L3970L
sV426.10
p2622
L2227L
sVE950.4
p2623
L3477L
sV034.0
p2624
L2096L
sV789.51
p2625
L5413L
sV276.52
p2626
L2143L
sV751.7
p2627
L5272L
sV941.15
p2628
L8024L
sV716.31
p2629
L3524L
sV285.0
p2630
L1398L
sV722.32
p2631
L1052L
sV376.44
p2632
L7873L
sV226
p2633
L3546L
sV027.2
p2634
L6049L
sVE001.0
p2635
L2980L
sV365.13
p2636
L5862L
sV204.90
p2637
L2265L
sV958.90
p2638
L2494L
sV461.1
p2639
L792L
sV288.9
p2640
L3069L
sV909.9
p2641
L6545L
sV733.43
p2642
L5234L
sV572.3
p2643
L584L
sVV58.41
p2644
L1190L
sV719.92
p2645
L6822L
sV518.84
p2646
L1598L
sV300.21
p2647
L2306L
sV758.
p2648
L6736L
sV147.9
p2649
L5521L
sV786.39
p2650
L2335L
sV953.0
p2651
L7190L
sV953.4
p2652
L1620L
sV276.1
p2653
L580L
sV285.8
p2654
L753L
sVV85.34
p2655
L4280L
sV296.23
p2656
L3564L
sV296.00
p2657
L1420L
sV865.13
p2658
L6966L
sV999.39
p2659
L3552L
sV618.09
p2660
L3869L
sV753.12
p2661
L4474L
sV564.6
p2662
L6347L
sV389.10
p2663
L1133L
sVE999.0
p2664
L8665L
sV746.81
p2665
L8083L
sV796
p2666
L4588L
sVV77.91
p2667
L1758L
sV790.1
p2668
L1422L
sV305.30
p2669
L7312L
sV327.53
p2670
L5667L
sV249.41
p2671
L6696L
sVV44.6
p2672
L3236L
sVE812.8
p2673
L3537L
sV789.67
p2674
L4094L
sV521.00
p2675
L624L
sV282.63
p2676
L3114L
sVE863.4
p2677
L8618L
sV707.24
p2678
L1554L
sV770.88
p2679
L5316L
sV861.22
p2680
L7126L
sV382.01
p2681
L1642L
sV608.4
p2682
L5830L
sVV10.63
p2683
L7085L
sV600.10
p2684
L4290L
sV379.29
p2685
L5426L
sV152.9
p2686
L2570L
sV728.86
p2687
L4082L
sV582.81
p2688
L3149L
sV816.02
p2689
L2188L
sV779.3
p2690
L8479L
sV454.0
p2691
L393L
sV362.13
p2692
L3393L
sV646.81
p2693
L4332L
sV435.2
p2694
L1825L
sV184.4
p2695
L3688L
sV176.0
p2696
L5322L
sV780.50
p2697
L1042L
sV985.9
p2698
L5653L
sVE849.5
p2699
L1480L
sV153.8
p2700
L5528L
sV277.89
p2701
L7681L
sV256.0
p2702
L6320L
sVV06.9
p2703
L2429L
sV202.78
p2704
L7372L
sV618.00
p2705
L3701L
sV455.7
p2706
L6915L
sV709.2
p2707
L1087L
sVV62.1
p2708
L7391L
sV233.2
p2709
L4424L
sV862.0
p2710
L7964L
sV941.00
p2711
L6293L
sV334.4
p2712
L8281L
sV840.6
p2713
L2502L
sV730.79
p2714
L8311L
sV333.89
p2715
L6148L
sV851.01
p2716
L6707L
sV754.81
p2717
L7597L
sVV10.69
p2718
L3162L
sV171.2
p2719
L6543L
sV304.83
p2720
L4491L
sVE988.8
p2721
L6663L
sV758
p2722
L3452L
sVV49.82
p2723
L8080L
sV716.87
p2724
L7991L
sVV25.49
p2725
L2243L
sV421.1
p2726
L5588L
sV230.5
p2727
L7410L
sV523.31
p2728
L260L
sVV23.84
p2729
L3823L
sV196.1
p2730
L5034L
sV338.12
p2731
L6703L
sVE816.1
p2732
L2421L
sV270.9
p2733
L4908L
sV369.65
p2734
L6309L
sV378.24
p2735
L4335L
sVE914
p2736
L2172L
sV537.82
p2737
L3820L
sV788.65
p2738
L5397L
sV317
p2739
L1842L
sVE813.6
p2740
L5045L
sV995.53
p2741
L4176L
sV410.42
p2742
L8151L
sV364.42
p2743
L6072L
sV368.30
p2744
L6727L
sV712.24
p2745
L8050L
sV159.9
p2746
L3957L
sV869.0
p2747
L4667L
sVV10.53
p2748
L6430L
sV660.31
p2749
L2000L
sV756.17
p2750
L3765L
sV250.33
p2751
L5548L
sV808.41
p2752
L3904L
sV707.06
p2753
L1919L
sV521.06
p2754
L8556L
sV523.33
p2755
L4893L
sV236.90
p2756
L6651L
sV312.39
p2757
L988L
sV764.0
p2758
L7549L
sV525.62
p2759
L8670L
sV824.2
p2760
L1762L
sVE881.0
p2761
L2018L
sVE905.5
p2762
L5976L
sV368.69
p2763
L6517L
sV731.3
p2764
L6502L
sV715.15
p2765
L684L
sV919.8
p2766
L4425L
sV381.81
p2767
L676L
sV373.02
p2768
L1434L
sV354.3
p2769
L4753L
sV812.20
p2770
L1619L
sV728.9
p2771
L957L
sV372.89
p2772
L7004L
sV707.10
p2773
L1607L
sV863.29
p2774
L6669L
sV288.66
p2775
L5451L
sV239.1
p2776
L3770L
sV341.22
p2777
L8496L
sV279.4
p2778
L8466L
sV715.13
p2779
L223L
sV205.01
p2780
L1793L
sV272.5
p2781
L1539L
sV708.1
p2782
L5685L
sVV45.72
p2783
L335L
sVE938.0
p2784
L6690L
sV385.23
p2785
L8555L
sVV53.90
p2786
L3788L
sV202.90
p2787
L5044L
sV362.61
p2788
L6547L
sV204.11
p2789
L3161L
sV713.6
p2790
L3539L
sV153.9
p2791
L708L
sVV61.8
p2792
L3369L
sV250.73
p2793
L5205L
sVV72.63
p2794
L293L
sV751.60
p2795
L6265L
sV521.9
p2796
L2564L
sVV61.21
p2797
L5253L
sV905.2
p2798
L2647L
sVV87.02
p2799
L2596L
sV945.03
p2800
L7178L
sV305.70
p2801
L1192L
sVE918
p2802
L1332L
sV786.30
p2803
L2161L
sV529.3
p2804
L3605L
sV308.3
p2805
L2705L
sVV49.73
p2806
L1610L
sV110.1
p2807
L107L
sV327.21
p2808
L3270L
sV285.22
p2809
L3381L
sV575.2
p2810
L4069L
sV017.00
p2811
L4002L
sV414.03
p2812
L4160L
sV357.5
p2813
L3146L
sV536.1
p2814
L7160L
sV790.22
p2815
L2593L
sV596.2
p2816
L1574L
sV493.9
p2817
L8331L
sV162.8
p2818
L5393L
sV625.5
p2819
L6129L
sV716.38
p2820
L6272L
sV812.19
p2821
L7463L
sV730.92
p2822
L7118L
sVV81.1
p2823
L6276L
sV150.1
p2824
L8249L
sV379.04
p2825
L6458L
sV560.1
p2826
L331L
sV833.00
p2827
L5431L
sV361.81
p2828
L2349L
sV301.20
p2829
L4159L
sV916.1
p2830
L2065L
sVV69.2
p2831
L2360L
sV708.0
p2832
L1633L
sV365.60
p2833
L5129L
sV573.8
p2834
L437L
sV200.02
p2835
L5573L
sV771.89
p2836
L8623L
sV657.03
p2837
L6364L
sV717.89
p2838
L3358L
sV097.1
p2839
L5021L
sV596.55
p2840
L6526L
sV371.03
p2841
L4167L
sV228.0
p2842
L8615L
sVV72.8
p2843
L7706L
sV114.4
p2844
L5122L
sV227.4
p2845
L3886L
sV516.1
p2846
L8161L
sV473.1
p2847
L1833L
sV966.3
p2848
L2995L
sV295.20
p2849
L4216L
sV665.41
p2850
L8509L
sV599.81
p2851
L5407L
sV279.8
p2852
L5931L
sV646.21
p2853
L6300L
sV765.12
p2854
L8551L
sV216.3
p2855
L2736L
sVV04.3
p2856
L8406L
sV732.8
p2857
L3689L
sV480.9
p2858
L1789L
sV094.9
p2859
L5754L
sV781.91
p2860
L5796L
sV786.59
p2861
L61L
sV617.5
p2862
L7941L
sV249.61
p2863
L7868L
sV365.73
p2864
L401L
sV731.2
p2865
L7813L
sV078.19
p2866
L85L
sV420.91
p2867
L7521L
sV723.3
p2868
L3000L
sVV25.2
p2869
L1238L
sV363.40
p2870
L7063L
sVE814.7
p2871
L1306L
sV369.60
p2872
L511L
sV756.16
p2873
L6665L
sV525.69
p2874
L7786L
sV348.9
p2875
L2064L
sV941.29
p2876
L8027L
sV216.5
p2877
L1635L
sV257.1
p2878
L777L
sVV21.31
p2879
L3518L
sV362.17
p2880
L3247L
sV519.00
p2881
L3949L
sV197.0
p2882
L817L
sV369.70
p2883
L4116L
sV823.82
p2884
L2712L
sV648.10
p2885
L7306L
sV250.42
p2886
L550L
sV537.3
p2887
L6363L
sV058.89
p2888
L4386L
sV369.8
p2889
L4008L
sV727.2
p2890
L796L
sV719.19
p2891
L4913L
sVV45.88
p2892
L4202L
sVE900.9
p2893
L5641L
sV377.10
p2894
L2055L
sV655.11
p2895
L7885L
sV795.18
p2896
L6874L
sV011.90
p2897
L2863L
sV753.11
p2898
L4608L
sV659.70
p2899
L8134L
sV673.83
p2900
L6704L
sV355.3
p2901
L2590L
sV188.1
p2902
L5798L
sV245.2
p2903
L3172L
sV486
p2904
L53L
sV562.11
p2905
L405L
sVE019.0
p2906
L6558L
sV727.09
p2907
L3542L
sV590.80
p2908
L458L
sV038.43
p2909
L5091L
sV733.40
p2910
L3550L
sVV12.61
p2911
L825L
sV941.10
p2912
L6282L
sV741.01
p2913
L8622L
sV327.37
p2914
L6771L
sV881.00
p2915
L672L
sVE939.7
p2916
L6972L
sV346.53
p2917
L8416L
sV728.12
p2918
L7069L
sV671.50
p2919
L7389L
sV847.4
p2920
L3850L
sVV46.11
p2921
L1596L
sV293.83
p2922
L428L
sVV16.41
p2923
L4579L
sV307.47
p2924
L2071L
sV780.01
p2925
L36L
sV385.9
p2926
L4926L
sV159.0
p2927
L4437L
sV719.24
p2928
L8501L
sVV17.2
p2929
L5673L
sV645.13
p2930
L6973L
sV836.3
p2931
L3244L
sV304.40
p2932
L2166L
sV862.22
p2933
L6123L
sV523.8
p2934
L3433L
sV782.5
p2935
L5627L
sV796.70
p2936
L8462L
sV182.8
p2937
L6207L
sVE000.0
p2938
L6026L
sV661.01
p2939
L1996L
sV190.9
p2940
L7541L
sV646.73
p2941
L2388L
sV346.11
p2942
L2351L
sVV13.51
p2943
L3997L
sV525.0
p2944
L3547L
sV204.91
p2945
L5087L
sVV13.01
p2946
L1980L
sVE980.0
p2947
L2384L
sV300.11
p2948
L3049L
sV516.32
p2949
L6361L
sV716.99
p2950
L1248L
sV805.8
p2951
L3106L
sV664.01
p2952
L2855L
sV367.0
p2953
L730L
sV443.9
p2954
L106L
sV838.00
p2955
L2297L
sV834.01
p2956
L6548L
sV250.21
p2957
L7000L
sV379.09
p2958
L3085L
sV814.10
p2959
L8070L
sV233.9
p2960
L7789L
sVE016.2
p2961
L8484L
sV718.40
p2962
L1563L
sV305.9
p2963
L4679L
sV999.79
p2964
L7254L
sV801.10
p2965
L5633L
sV607.82
p2966
L5503L
sV309.23
p2967
L7899L
sV999.99
p2968
L4694L
sV250.70
p2969
L118L
sV686.00
p2970
L5010L
sV802.21
p2971
L5270L
sV873.1
p2972
L5449L
sV042
p2973
L3215L
sV128.9
p2974
L8627L
sVV10.04
p2975
L3985L
sV649.43
p2976
L3196L
sV803.10
p2977
L7600L
sV280.0
p2978
L928L
sV839.42
p2979
L6101L
sV787.23
p2980
L2036L
sV333.1
p2981
L382L
sV716.89
p2982
L6728L
sV375.55
p2983
L4849L
sVV72.84
p2984
L870L
sV668.81
p2985
L7490L
sV444.09
p2986
L5000L
sV807.08
p2987
L4677L
sV070.44
p2988
L2529L
sV295.31
p2989
L8317L
sVE884.6
p2990
L5150L
sV648.73
p2991
L1232L
sV659.61
p2992
L4420L
sV531.00
p2993
L4549L
sV112.1
p2994
L234L
sV372.31
p2995
L4376L
sVV15.59
p2996
L2164L
sV521.24
p2997
L4829L
sV198.1
p2998
L8502L
sV366.03
p2999
L2066L
sVE924.9
p3000
L8123L
sV327.30
p3001
L5269L
sV305.61
p3002
L1131L
sVV10.42
p3003
L1262L
sV718.75
p3004
L5325L
sV625.8
p3005
L1471L
sV655.83
p3006
L4498L
sV459.89
p3007
L914L
sV423.9
p3008
L1494L
sV708.5
p3009
L3606L
sV569.62
p3010
L3065L
sV594.1
p3011
L453L
sV343.0
p3012
L2733L
sVV57.81
p3013
L5156L
sV823.21
p3014
L4706L
sV999.83
p3015
L2670L
sV998.09
p3016
L5847L
sVV49.83
p3017
L3394L
sV039.0
p3018
L1217L
sV716.56
p3019
L359L
sVE819.7
p3020
L3987L
sV911.9
p3021
L8099L
sVE883.9
p3022
L3473L
sV457.8
p3023
L517L
sVV72.5
p3024
L553L
sV567.38
p3025
L6200L
sV201.91
p3026
L3895L
sV787.63
p3027
L4379L
sV598.1
p3028
L2763L
sV362.52
p3029
L91L
sV969.79
p3030
L7684L
sV031.9
p3031
L6721L
sV716.97
p3032
L1666L
sV284.01
p3033
L6607L
sV365.10
p3034
L760L
sV522.0
p3035
L4523L
sV364.73
p3036
L7594L
sV992.5
p3037
L4320L
sV715.96
p3038
L11L
sV403.00
p3039
L3557L
sV441.2
p3040
L4644L
sV250.62
p3041
L1107L
sVV75.1
p3042
L7196L
sV880.23
p3043
L8044L
sV718.04
p3044
L7166L
sVV72.69
p3045
L751L
sV569.71
p3046
L6000L
sV427.9
p3047
L423L
sV451.84
p3048
L6348L
sV659.11
p3049
L3763L
sV048
p3050
L6979L
sV227.6
p3051
L7238L
sV279.10
p3052
L4141L
sV582.9
p3053
L4446L
sV755.64
p3054
L6427L
sV190.8
p3055
L7538L
sV721.5
p3056
L6394L
sV131.02
p3057
L6809L
sVV63.2
p3058
L5939L
sV934.0
p3059
L4455L
sVV53.1
p3060
L1964L
sV709.09
p3061
L2562L
sV795.10
p3062
L6172L
sV384.82
p3063
L4377L
sV732.9
p3064
L1588L
sV607.81
p3065
L8621L
sVV85.51
p3066
L5317L
sVV72.86
p3067
L3145L
sV173.02
p3068
L8566L
sV995.7
p3069
L4778L
sV955.7
p3070
L6433L
sV289.89
p3071
L905L
sV345.11
p3072
L2115L
sV707.07
p3073
L1567L
sV850.0
p3074
L3913L
sV220
p3075
L5124L
sV914.8
p3076
L3813L
sV624.8
p3077
L1272L
sV3182
p3078
L6853L
sV952.00
p3079
L5243L
sV098.0
p3080
L3426L
sV788.31
p3081
L597L
sV824.8
p3082
L616L
sV276.0
p3083
L1570L
sV786.01
p3084
L2137L
sV913.1
p3085
L5473L
sV288.03
p3086
L1877L
sV361.05
p3087
L8646L
sV790.01
p3088
L2904L
sV707.05
p3089
L1313L
sVE821.2
p3090
L7351L
sV610.0
p3091
L2356L
sV736.9
p3092
L3418L
sV655.93
p3093
L5433L
sV196.9
p3094
L3322L
sV525.53
p3095
L7217L
sV343.9
p3096
L2108L
sVV22.1
p3097
L1231L
sV805.06
p3098
L6168L
sV378.23
p3099
L2273L
sV371.82
p3100
L1284L
sV681.10
p3101
L414L
sVV58.73
p3102
L5013L
sV367.20
p3103
L126L
sV996.78
p3104
L1533L
sV724.01
p3105
L1201L
sV244.3
p3106
L2147L
sV362.29
p3107
L5028L
sV367.1
p3108
L262L
sV239.81
p3109
L6902L
sV980.2
p3110
L5189L
sV173.82
p3111
L6708L
sV573.4
p3112
L6791L
sV438.85
p3113
L2397L
sV727.60
p3114
L873L
sV646.93
p3115
L2041L
sV618.01
p3116
L2052L
sV285.29
p3117
L941L
sV572.0
p3118
L3007L
sV808.43
p3119
L4664L
sV571.2
p3120
L648L
sV560.31
p3121
L3643L
sV295.04
p3122
L4163L
sV868.14
p3123
L8546L
sV727.50
p3124
L6138L
sV620.9
p3125
L3697L
sVE864.0
p3126
L6797L
sVV67.4
p3127
L1615L
sV053.10
p3128
L3011L
sV112.0
p3129
L851L
sV862.8
p3130
L2440L
sV998.6
p3131
L2772L
sV052.7
p3132
L8431L
sVE906.9
p3133
L7394L
sV642.23
p3134
L4499L
sV441.4
p3135
L2193L
sV223.0
p3136
L5412L
sV759.0
p3137
L5405L
sV945.32
p3138
L5373L
sV581.9
p3139
L2860L
sV728.4
p3140
L7041L
sV278.8
p3141
L5928L
sV366.15
p3142
L1337L
sV999.82
p3143
L5951L
sV995.64
p3144
L6886L
sVE980.3
p3145
L982L
sV788.7
p3146
L4611L
sV200.71
p3147
L6870L
sVE818.0
p3148
L3193L
sV730.39
p3149
L7103L
sVV15.85
p3150
L2028L
sV659.51
p3151
L5804L
sVV28.89
p3152
L2846L
sV807.07
p3153
L6747L
sV719.41
p3154
L476L
sV901.9
p3155
L8375L
sV791.2
p3156
L3878L
sV437.2
p3157
L3137L
sV156.2
p3158
L5535L
sV294.9
p3159
L1146L
sVV79.98
p3160
L6112L
sV270.1
p3161
L5232L
sV969.1
p3162
L7483L
sV362.37
p3163
L4890L
sV952.05
p3164
L6824L
sV647.63
p3165
L5300L
sV301.51
p3166
L1079L
sV747.82
p3167
L4585L
sV395.9
p3168
L5388L
sV735.9
p3169
L2641L
sV289.9
p3170
L4111L
sVV85.39
p3171
L2553L
sV805.03
p3172
L6099L
sVV87.49
p3173
L4208L
sV478.21
p3174
L6619L
sVV47.4
p3175
L3730L
sV426.51
p3176
L2369L
sV807.4
p3177
L6675L
sV783.42
p3178
L3042L
sV295.33
p3179
L7504L
sV210.9
p3180
L8508L
sV227.1
p3181
L3549L
sVE006.0
p3182
L8067L
sV533.00
p3183
L6409L
sV593.9
p3184
L353L
sVV60.5
p3185
L8562L
sVV85.35
p3186
L848L
sV054.9
p3187
L2080L
sV195.5
p3188
L5061L
sV934.1
p3189
L4835L
sV742.0
p3190
L5380L
sV153.2
p3191
L2405L
sV425.8
p3192
L6298L
sVE966
p3193
L2903L
sV694.4
p3194
L5888L
sVE884.5
p3195
L3902L
sV345.2
p3196
L5664L
sV320.89
p3197
L3356L
sV264.8
p3198
L4406L
sV454.8
p3199
L391L
sV267
p3200
L7195L
sV045.90
p3201
L5255L
sV355.5
p3202
L2558L
sV277.00
p3203
L2110L
sV737.19
p3204
L2314L
sV807.00
p3205
L59L
sV981
p3206
L6828L
sV755.56
p3207
L4698L
sVV75.8
p3208
L3933L
sVE015.2
p3209
L3934L
sV975.8
p3210
L4150L
sV417.8
p3211
L3613L
sV215.5
p3212
L4736L
sV718.82
p3213
L7119L
sV296.61
p3214
L497L
sV756.4
p3215
L4142L
sV118
p3216
L7046L
sV279.9
p3217
L545L
sV342.12
p3218
L3917L
sV127.0
p3219
L8616L
sVV45.84
p3220
L5443L
sV360.20
p3221
L8464L
sV249.90
p3222
L1973L
sV612.1
p3223
L1504L
sV345.51
p3224
L4055L
sV918.0
p3225
L2169L
sV718.28
p3226
L7596L
sV277.01
p3227
L3464L
sV733.7
p3228
L7472L
sV718.85
p3229
L5452L
sV945.40
p3230
L7984L
sV057.8
p3231
L7636L
sV283.9
p3232
L3105L
sVV49.89
p3233
L1356L
sV785.51
p3234
L3496L
sV919.2
p3235
L4278L
sV629.31
p3236
L5209L
sV564.9
p3237
L5330L
sV879.2
p3238
L2183L
sV719.82
p3239
L1074L
sVV81.4
p3240
L5509L
sV730.35
p3241
L7781L
sVV77.5
p3242
L7106L
sV771.4
p3243
L5036L
sV970.8
p3244
L807L
sVE013.5
p3245
L6941L
sVV67.9
p3246
L964L
sV173.0
p3247
L6767L
sV427.5
p3248
L1592L
sV372.20
p3249
L3173L
sVE860.1
p3250
L7993L
sV343.8
p3251
L2544L
sV718.83
p3252
L5660L
sV216.0
p3253
L2507L
sV724.8
p3254
L932L
sV873.60
p3255
L3809L
sV312.00
p3256
L2750L
sV284.19
p3257
L1297L
sV173.81
p3258
L7723L
sV216.1
p3259
L2805L
sV795.82
p3260
L3861L
sV110.6
p3261
L7648L
sV070.32
p3262
L2464L
sV368.11
p3263
L6395L
sV416.0
p3264
L769L
sVV43.4
p3265
L6379L
sV209.23
p3266
L6940L
sV176.9
p3267
L5063L
sV643.83
p3268
L3753L
sV209.72
p3269
L3316L
sVV12.1
p3270
L5500L
sV323.01
p3271
L6730L
sV711.51
p3272
L5906L
sVV07.31
p3273
L2458L
sVV10.59
p3274
L7305L
sV368.60
p3275
L6271L
sV347.10
p3276
L4502L
sVE956
p3277
L1099L
sV573.3
p3278
L1300L
sV122.3
p3279
L5703L
sV464.10
p3280
L3337L
sVV90.11
p3281
L6843L
sV980.8
p3282
L5058L
sV342.80
p3283
L6189L
sV719.57
p3284
L2441L
sV482.89
p3285
L4264L
sV585
p3286
L8261L
sV257.9
p3287
L1318L
sV194.1
p3288
L6144L
sV275.01
p3289
L6680L
sV556.6
p3290
L3079L
sV567.21
p3291
L3553L
sV282.5
p3292
L3113L
sV274.89
p3293
L763L
sV585.1
p3294
L2015L
sV500
p3295
L8250L
sVE967.9
p3296
L4642L
sV725
p3297
L2134L
sV747.10
p3298
L7159L
sVV70.2
p3299
L5077L
sV318.1
p3300
L1763L
sVV20.1
p3301
L8181L
sV530.13
p3302
L2089L
sV972.0
p3303
L7960L
sVV12.42
p3304
L3375L
sV501
p3305
L7523L
sV917.7
p3306
L2951L
sVV23.9
p3307
L3756L
sV484.7
p3308
L8068L
sV788.61
p3309
L7006L
sV521.7
p3310
L8224L
sVV07.8
p3311
L2125L
sV378.9
p3312
L2862L
sV807.01
p3313
L1281L
sV537.5
p3314
L3364L
sV041.02
p3315
L2141L
sV743.41
p3316
L7627L
sVE904.3
p3317
L6401L
sVV49.75
p3318
L1197L
sV705.21
p3319
L5744L
sV202.01
p3320
L2213L
sV945.12
p3321
L8201L
sV578.9
p3322
L304L
sV448.0
p3323
L8387L
sV348.8
p3324
L6911L
sVV28.6
p3325
L3757L
sV782.62
p3326
L4056L
sV358.8
p3327
L4127L
sV719.59
p3328
L4766L
sVE879.0
p3329
L7019L
sV873.52
p3330
L3654L
sV956.4
p3331
L4633L
sV378.53
p3332
L4622L
sV141.0
p3333
L7654L
sV216.8
p3334
L4902L
sV305.20
p3335
L689L
sV770.7
p3336
L3514L
sV715.31
p3337
L889L
sV200.33
p3338
L6342L
sV376.01
p3339
L1253L
sVV16.42
p3340
L5851L
sV511.9
p3341
L56L
sV414.19
p3342
L6515L
sV757.5
p3343
L3972L
sV712.34
p3344
L5767L
sV730.01
p3345
L6134L
sV704.8
p3346
L1198L
sV789.06
p3347
L255L
sV344.89
p3348
L2543L
sV873.73
p3349
L6988L
sV429.83
p3350
L3862L
sV232.3
p3351
L1821L
sV820.09
p3352
L736L
sV197.8
p3353
L5538L
sVV77.1
p3354
L558L
sV172.8
p3355
L2578L
sV965.8
p3356
L5187L
sV733.00
p3357
L161L
sV381.20
p3358
L7631L
sVV46.2
p3359
L140L
sV812.02
p3360
L3819L
sV301.50
p3361
L4715L
sVV85.30
p3362
L2874L
sV823.91
p3363
L4981L
sV378.00
p3364
L3324L
sV868.09
p3365
L4925L
sV7194S
p3366
L7653L
sVV58.42
p3367
L1496L
sV911.5
p3368
L6456L
sVV10.44
p3369
L4863L
sV304.42
p3370
L5901L
sV996.40
p3371
L2548L
sV692.84
p3372
L6519L
sV996.83
p3373
L6252L
sV530.21
p3374
L4770L
sV438.2
p3375
L8313L
sV519.19
p3376
L712L
sV296.7
p3377
L1005L
sV345.91
p3378
L1062L
sV922.32
p3379
L3258L
sV642.63
p3380
L3198L
sV535.10
p3381
L354L
sV190.6
p3382
L7011L
sV738.3
p3383
L3784L
sV558.41
p3384
L7841L
sV952.11
p3385
L7064L
sV288.1
p3386
L6906L
sV786.09
p3387
L521L
sV188.3
p3388
L8574L
sV216.9
p3389
L679L
sV916.3
p3390
L3510L
sV209.70
p3391
L7845L
sV813.11
p3392
L6381L
sV674.50
p3393
L8582L
sV852.41
p3394
L8110L
sV528.79
p3395
L1816L
sV820.21
p3396
L1382L
sV754.41
p3397
L7824L
sV676.93
p3398
L7870L
sV349.31
p3399
L4687L
sV726.64
p3400
L2865L
sV863.81
p3401
L4979L
sVV61.9
p3402
L1424L
sV502
p3403
L4434L
sV550.11
p3404
L8370L
sV099.3
p3405
L3566L
sV754.32
p3406
L3188L
sV160.2
p3407
L8005L
sVV09.91
p3408
L3572L
sV642.32
p3409
L5284L
sV287.4
p3410
L5263L
sV873.59
p3411
L4775L
sVV59.8
p3412
L5218L
sVV72.82
p3413
L1353L
sV879.7
p3414
L5104L
sV574.80
p3415
L5563L
sV788.2
p3416
L6146L
sV928.10
p3417
L6109L
sV816.12
p3418
L5918L
sV770.83
p3419
L8378L
sV616.51
p3420
L4919L
sV307.48
p3421
L4003L
sV440.23
p3422
L1110L
sV304.41
p3423
L5579L
sVE890.2
p3424
L4338L
sV346.30
p3425
L6418L
sVE005.0
p3426
L6404L
sV953.9
p3427
L5881L
sV759.7
p3428
L3026L
sV447.9
p3429
L1827L
sV944.11
p3430
L2749L
sV429.9
p3431
L1329L
sVV44.4
p3432
L2181L
sV722.91
p3433
L1046L
sV437.1
p3434
L49L
sV172.6
p3435
L7959L
sV151.8
p3436
L7498L
sV017.50
p3437
L5339L
sV144.0
p3438
L4883L
sV783.3
p3439
L1344L
sV873.42
p3440
L485L
sVV85.1
p3441
L1976L
sV643.13
p3442
L2487L
sVV13.59
p3443
L3141L
sV955.9
p3444
L5920L
sVV49.5
p3445
L6268L
sV614.6
p3446
L4962L
sV364.74
p3447
L6248L
sV719.51
p3448
L877L
sV853.01
p3449
L5639L
sV727.40
p3450
L3403L
sVV16.40
p3451
L6413L
sV749.20
p3452
L3018L
sV741.93
p3453
L4542L
sV805.05
p3454
L7994L
sV987.1
p3455
L8382L
sV991.2
p3456
L5855L
sV997.60
p3457
L3256L
sV799.1
p3458
L986L
sV653.33
p3459
L8171L
sV474.0
p3460
L8685L
sV553.20
p3461
L1663L
sV099.0
p3462
L4210L
sV250.61
p3463
L1203L
sV389.06
p3464
L5233L
sVE941.2
p3465
L5369L
sV189.8
p3466
L7928L
sV078.0
p3467
L2149L
sV337.9
p3468
L3782L
sV810.03
p3469
L1755L
sV781.94
p3470
L2792L
sV455.4
p3471
L677L
sVE958.0
p3472
L985L
sV255.42
p3473
L8230L
sV998.31
p3474
L3249L
sV641.23
p3475
L5736L
sV179
p3476
L5154L
sV482.82
p3477
L6184L
sVV41.2
p3478
L2673L
sV415.0
p3479
L1351L
sV234.9
p3480
L8302L
sVV61.03
p3481
L7520L
sV372.40
p3482
L1760L
sV926.11
p3483
L7630L
sVV49.76
p3484
L1709L
sVE821.9
p3485
L5820L
sV516.34
p3486
L4850L
sV427.41
p3487
L5155L
sV366.50
p3488
L1659L
sVV54.15
p3489
L1613L
sV157.0
p3490
L2177L
sV607.89
p3491
L5872L
sV532.60
p3492
L7986L
sV881.02
p3493
L1092L
sVE928.8
p3494
L978L
sV671.44
p3495
L6279L
sV520.4
p3496
L7559L
sV719.52
p3497
L6765L
sV369.12
p3498
L7581L
sV389.22
p3499
L3996L
sV714.81
p3500
L3719L
sV571.41
p3501
L6317L
sV719.68
p3502
L6885L
sVE905.4
p3503
L8682L
sV842.00
p3504
L210L
sV835.01
p3505
L7280L
sV459.81
p3506
L911L
sV813.82
p3507
L7040L
sVE854.1
p3508
L7881L
sV698.2
p3509
L4717L
sV593.2
p3510
L534L
sV716.67
p3511
L8554L
sV296.43
p3512
L2742L
sVE960.1
p3513
L2626L
sVV23.49
p3514
L4906L
sV996.77
p3515
L2922L
sV813.81
p3516
L3411L
sV373.9
p3517
L5613L
sVE815.9
p3518
L7670L
sV200.30
p3519
L2761L
sV244.2
p3520
L2452L
sV574.51
p3521
L1865L
sV162.2
p3522
L1873L
sVV49.62
p3523
L1715L
sV747.89
p3524
L7894L
sV238.1
p3525
L3530L
sV996.46
p3526
L7714L
sVE812.0
p3527
L1461L
sV659.63
p3528
L4413L
sV642.01
p3529
L5286L
sV820.02
p3530
L2959L
sV209.69
p3531
L6535L
sV296.64
p3532
L2912L
sV696.3
p3533
L7365L
sV008.67
p3534
L8368L
sV229.9
p3535
L5982L
sVV16.9
p3536
L5092L
sV564.7
p3537
L3961L
sV482.81
p3538
L7856L
sV789.66
p3539
L3112L
sV907.2
p3540
L4091L
sV307.81
p3541
L496L
sV426.82
p3542
L2689L
sV346.01
p3543
L2350L
sV173.42
p3544
L4879L
sV386.02
p3545
L8413L
sV714.32
p3546
L8530L
sV749.00
p3547
L3019L
sV719.99
p3548
L5593L
sV795.12
p3549
L3653L
sVN981
p3550
L3815L
sV897.6
p3551
L1712L
sV644.20
p3552
L1994L
sV459.10
p3553
L909L
sV282.62
p3554
L3103L
sV287.9
p3555
L2892L
sV753.17
p3556
L2448L
sV378.54
p3557
L1289L
sV300.5
p3558
L4052L
sV331.2
p3559
L3675L
sVV49.86
p3560
L215L
sV174.6
p3561
L6415L
sVV46.14
p3562
L7191L
sV820.8
p3563
L737L
sV642.50
p3564
L2008L
sV115.93
p3565
L8428L
sV529.1
p3566
L5074L
sV282.42
p3567
L8047L
sV452
p3568
L3398L
sV207.82
p3569
L8440L
sV733.93
p3570
L5459L
sVV10.41
p3571
L4317L
sV381.9
p3572
L6575L
sV726.65
p3573
L2298L
sV288.6
p3574
L5776L
sV296.24
p3575
L3094L
sV660.40
p3576
L8606L
sVV65.49
p3577
L1130L
sVV81.9
p3578
L7972L
sV823.01
p3579
L4296L
sV346.21
p3580
L7808L
sV780.71
p3581
L2453L
sV365.06
p3582
L4819L
sV941.21
p3583
L8445L
sV799.01
p3584
L145L
sVV10.9
p3585
L6910L
sVV67.00
p3586
L726L
sV411
p3587
L8379L
sV821.10
p3588
L5192L
sV805.5
p3589
L8543L
sV305
p3590
L1006L
sV605
p3591
L4289L
sV821.31
p3592
L5880L
sV155.2
p3593
L1181L
sV336.9
p3594
L1556L
sV790.4
p3595
L1173L
sV201.94
p3596
L7226L
sV410.60
p3597
L8579L
sVV11.8
p3598
L1109L
sVV15.80
p3599
L4711L
sV702.8
p3600
L3785L
sV846.1
p3601
L2242L
sV290.13
p3602
L2868L
sV754.62
p3603
L3408L
sV848.49
p3604
L7901L
sVE884.9
p3605
L3189L
sV996.65
p3606
L5997L
sV054.41
p3607
L7511L
sV284.81
p3608
L2024L
sV976.6
p3609
L5190L
sV271.3
p3610
L46L
sV256.4
p3611
L3123L
sV364.21
p3612
L6959L
sV388.30
p3613
L1073L
sV412
p3614
L939L
sV569.82
p3615
L3421L
sV453.89
p3616
L772L
sV215.9
p3617
L3799L
sV447.0
p3618
L4482L
sV523.40
p3619
L3721L
sV695.0
p3620
L7831L
sV836.62
p3621
L2711L
sV553.29
p3622
L2407L
sV270.0
p3623
L7623L
sV960.9
p3624
L6343L
sV416.9
p3625
L3214L
sVV48.0
p3626
L7404L
sV154.3
p3627
L2410L
sV368.40
p3628
L3535L
sVV77.2
p3629
L7127L
sV394.1
p3630
L5608L
sV370.8
p3631
L3580L
sV719.09
p3632
L5966L
sV228.04
p3633
L1177L
sVE823.0
p3634
L7181L
sV355.6
p3635
L1155L
sV293.9
p3636
L4733L
sV275.8
p3637
L4134L
sV897.5
p3638
L6876L
sV327.36
p3639
L6706L
sV831.01
p3640
L1621L
sVV50.0
p3641
L7911L
sVE931.5
p3642
L8394L
sV643.00
p3643
L5876L
sV381.4
p3644
L2103L
sV788.69
p3645
L3658L
sVE920.2
p3646
L7096L
sV147.1
p3647
L7799L
sV813.00
p3648
L6970L
sV806.39
p3649
L7184L
sV790.95
p3650
L3743L
sV438.84
p3651
L3414L
sV379.42
p3652
L1435L
sVV09.81
p3653
L5940L
sV295.43
p3654
L4161L
sV997.62
p3655
L2294L
sV319
p3656
L131L
sV711.16
p3657
L8270L
sV337.01
p3658
L3750L
sV506.3
p3659
L7698L
sV729.31
p3660
L7138L
sV225.9
p3661
L8660L
sVV60.1
p3662
L5481L
sVV70.5
p3663
L1391L
sVV56.32
p3664
L5807L
sV745.8
p3665
L7173L
sV733.01
p3666
L95L
sV794.09
p3667
L3160L
sVV64.41
p3668
L4626L
sV078.5
p3669
L3182L
sV695.89
p3670
L4318L
sV520.6
p3671
L3184L
sVE967.3
p3672
L2900L
sVE925.9
p3673
L4857L
sV357.82
p3674
L4726L
sVV07.4
p3675
L2094L
sV173.89
p3676
L8273L
sV993.1
p3677
L4392L
sV457.9
p3678
L6432L
sV305.23
p3679
L5677L
sVE906.2
p3680
L6081L
sV593.1
p3681
L4609L
sV282.49
p3682
L1720L
sV426.4
p3683
L1653L
sVV62.82
p3684
L2690L
sV737.41
p3685
L5423L
sV242.30
p3686
L6957L
sV286.53
p3687
L1868L
sV433.10
p3688
L512L
sV733.42
p3689
L2703L
sV363.20
p3690
L3191L
sV258.01
p3691
L8138L
sV079.88
p3692
L5305L
sV459.11
p3693
L7324L
sV209.53
p3694
L5319L
sV656.61
p3695
L7854L
sV718.30
p3696
L5712L
sVV72.31
p3697
L376L
sV913.4
p3698
L4457L
sV519.09
p3699
L426L
sV277.2
p3700
L5462L
sV944.40
p3701
L8291L
sV787.6
p3702
L3769L
sV483.1
p3703
L7354L
sVV82.2
p3704
L4281L
sV748.0
p3705
L6286L
sV813.31
p3706
L8098L
sV346.13
p3707
L7276L
sV471.9
p3708
L2476L
sV362.70
p3709
L4466L
sVV10.83
p3710
L1742L
sV647.90
p3711
L2843L
sV304.72
p3712
L5364L
sV157.1
p3713
L5406L
sV723.6
p3714
L5761L
sV997.49
p3715
L1415L
sV440.31
p3716
L5436L
sV706.3
p3717
L3171L
sV296.81
p3718
L6948L
sV974.1
p3719
L6094L
sV690.18
p3720
L3439L
sV526.69
p3721
L6453L
sV363.9
p3722
L7836L
sV525.20
p3723
L6137L
sV038.0
p3724
L1938L
sVE927.8
p3725
L1224L
sV367.89
p3726
L6327L
sV066.3
p3727
L3527L
sV372.51
p3728
L845L
sV277.4
p3729
L1977L
sV780.55
p3730
L1899L
sVV66.5
p3731
L7340L
sV244.9
p3732
L129L
sV208.91
p3733
L7921L
sV373.31
p3734
L4757L
sV405.19
p3735
L5336L
sV242.00
p3736
L274L
sV803.09
p3737
L6943L
sV371.22
p3738
L4169L
sV882.0
p3739
L625L
sV338.22
p3740
L3357L
sV716.18
p3741
L2481L
sV250.72
p3742
L1184L
sV455.9
p3743
L94L
sV218.2
p3744
L2102L
sVV02.54
p3745
L2676L
sV847
p3746
L6269L
sVV53.99
p3747
L4110L
sV524.03
p3748
L4928L
sV704.09
p3749
L3713L
sV371.43
p3750
L4782L
sV736.30
p3751
L6255L
sV327.00
p3752
L1429L
sV788.5
p3753
L468L
sVV05.9
p3754
L1730L
sV533.21
p3755
L7618L
sV344.01
p3756
L4495L
sV276.61
p3757
L4932L
sV487.1
p3758
L1213L
sV403.9
p3759
L6171L
sV722.31
p3760
L7152L
sV404.92
p3761
L4539L
sV377.21
p3762
L6582L
sV960.8
p3763
L5709L
sV617.2
p3764
L8079L
sVE944.3
p3765
L6311L
sV011.91
p3766
L8397L
sV402.1
p3767
L8478L
sV251.3
p3768
L4095L
sV642.71
p3769
L2852L
sV945.22
p3770
L1638L
sV624.01
p3771
L6498L
sV757.31
p3772
L4288L
sV360.44
p3773
L7945L
sV996.85
p3774
L2272L
sV719.65
p3775
L3268L
sV711.45
p3776
L7916L
sV622.0
p3777
L8031L
sV429.89
p3778
L3692L
sV518.2
p3779
L5164L
sV268.9
p3780
L212L
sV992.9
p3781
L5642L
sV943.39
p3782
L6574L
sV209.74
p3783
L3315L
sV011.50
p3784
L8277L
sVV46.9
p3785
L6891L
sV045.10
p3786
L5004L
sV642.40
p3787
L5172L
sV262
p3788
L3345L
sV172.1
p3789
L7502L
sV832.2
p3790
L7539L
sV429.3
p3791
L267L
sV751.4
p3792
L1362L
sV295.80
p3793
L2503L
sV878.3
p3794
L7231L
sV372.02
p3795
L4083L
sV310.89
p3796
L5819L
sV722.4
p3797
L952L
sVE821.3
p3798
L7446L
sV349.82
p3799
L2203L
sV707.13
p3800
L910L
sV726.79
p3801
L2377L
sV716.94
p3802
L2799L
sV782.61
p3803
L4246L
sV625.3
p3804
L1902L
sV365.65
p3805
L2945L
sVV64.2
p3806
L1278L
sV783.41
p3807
L1363L
sV779.9
p3808
L6390L
sVV49.9
p3809
L5778L
sV912.5
p3810
L6813L
sV692.0
p3811
L4166L
sV421.9
p3812
L2787L
sV242.90
p3813
L2462L
sV245.1
p3814
L6215L
sVE935.2
p3815
L3109L
sV372.81
p3816
L3717L
sV719.93
p3817
L4097L
sV458.1
p3818
L4942L
sV724.02
p3819
L1033L
sV202.82
p3820
L5292L
sV521.20
p3821
L3864L
sV642.10
p3822
L7862L
sV588.1
p3823
L4784L
sV298.2
p3824
L44L
sVV14.2
p3825
L917L
sVV43.64
p3826
L741L
sV945.44
p3827
L7983L
sV692.4
p3828
L3289L
sV648.80
p3829
L4198L
sV350.8
p3830
L5035L
sV378.30
p3831
L1857L
sV295.60
p3832
L4752L
sV384.23
p3833
L7401L
sV747.64
p3834
L5100L
sV741.02
p3835
L6491L
sV369.00
p3836
L1747L
sV378.85
p3837
L7318L
sV959.7
p3838
L999L
sVE945.4
p3839
L6209L
sV191.0
p3840
L3888L
sV334.0
p3841
L5962L
sV813.44
p3842
L2415L
sVV69.0
p3843
L4299L
sV736.81
p3844
L1483L
sV279.51
p3845
L5096L
sV202.08
p3846
L8560L
sV820.11
p3847
L1384L
sVV43.7
p3848
L6525L
sV962.7
p3849
L7944L
sV781.0
p3850
L418L
sV210.2
p3851
L5780L
sV233.0
p3852
L396L
sV571.40
p3853
L1528L
sVV26.89
p3854
L8160L
sV156.0
p3855
L2928L
sV250.01
p3856
L836L
sVV82.9
p3857
L2470L
sV372.14
p3858
L853L
sV359.81
p3859
L1072L
sV390
p3860
L4570L
sV916.5
p3861
L5625L
sV788.33
p3862
L416L
sV423.8
p3863
L6253L
sV344.9
p3864
L1553L
sVV15.88
p3865
L589L
sV309.82
p3866
L6838L
sV453.52
p3867
L3641L
sV730.05
p3868
L4234L
sV290.20
p3869
L4732L
sV788.34
p3870
L3828L
sV333.91
p3871
L5206L
sVE856
p3872
L6812L
sVE934.0
p3873
L4418L
sV795.11
p3874
L2696L
sV625.1
p3875
L7031L
sV715.20
p3876
L3056L
sVV40.2
p3877
L3100L
sV282.9
p3878
L7084L
sV996.71
p3879
L6858L
sV611.9
p3880
L1887L
sV278.01
p3881
L230L
sV753.16
p3882
L5604L
sV788.8
p3883
L8419L
sV535.40
p3884
L682L
sV227.8
p3885
L7037L
sV730.28
p3886
L1545L
sV525.60
p3887
L4074L
sV127.4
p3888
L7201L
sV567.22
p3889
L1029L
sV733.95
p3890
L4812L
sV414.3
p3891
L4685L
sVN91
p3892
L3874L
sV366.20
p3893
L2941L
sV781.93
p3894
L8284L
sV592.9
p3895
L463L
sV852.39
p3896
L8391L
sV365.9
p3897
L779L
sVV76.89
p3898
L2806L
sV375.22
p3899
L4889L
sV756.9
p3900
L4149L
sV783.40
p3901
L1403L
sVV45.3
p3902
L3301L
sV996.82
p3903
L3575L
sV202.83
p3904
L575L
sV079.0
p3905
L6759L
sV569.44
p3906
L4868L
sVE905.2
p3907
L5580L
sV875.0
p3908
L2579L
sV365.83
p3909
L8500L
sV292.0
p3910
L2435L
sV780.91
p3911
L7514L
sVV13.68
p3912
L8202L
sV209.43
p3913
L7897L
sV380.52
p3914
L4132L
sV791.7
p3915
L2634L
sV841.1
p3916
L6715L
sV796.9
p3917
L3853L
sV521.02
p3918
L2457L
sV756.71
p3919
L5415L
sVV72.9
p3920
L3703L
sVV62.4
p3921
L3104L
sV618.7
p3922
L8007L
sV969.5
p3923
L5328L
sV041.19
p3924
L2266L
sV345.81
p3925
L4247L
sV295.74
p3926
L2504L
sV787.5
p3927
L3523L
sV945.00
p3928
L5444L
sVV42.89
p3929
L5417L
sV305.01
p3930
L1L
sV374.55
p3931
L7325L
sV730.34
p3932
L8102L
sV730.22
p3933
L5731L
sV378.50
p3934
L8591L
sV718.05
p3935
L4763L
sV296.65
p3936
L4805L
sV388.0
p3937
L4754L
sV991.5
p3938
L5101L
sV364.3
p3939
L2936L
sV787.62
p3940
L4177L
sV569.6
p3941
L8130L
sV690.11
p3942
L4027L
sV878.1
p3943
L7645L
sV718.53
p3944
L6779L
sV527.8
p3945
L456L
sV556.3
p3946
L5889L
sV959.14
p3947
L2786L
sV622.8
p3948
L6720L
sV289.4
p3949
L1394L
sV553.00
p3950
L791L
sV786.7
p3951
L1169L
sVE849.8
p3952
L1378L
sV141.9
p3953
L3775L
sV642.70
p3954
L7962L
sV482.2
p3955
L2989L
sV788.0
p3956
L1010L
sV759.3
p3957
L4422L
sVE814.6
p3958
L7081L
sV653.83
p3959
L7700L
sV730.20
p3960
L1125L
sV754.61
p3961
L1375L
sV607.85
p3962
L7102L
sV365.22
p3963
L3968L
sVV58.72
p3964
L5275L
sV995.83
p3965
L1168L
sV269.0
p3966
L5903L
sV966.1
p3967
L5106L
sV707.11
p3968
L3240L
sV861.20
p3969
L5589L
sV755.8
p3970
L5430L
sV525.9
p3971
L1463L
sV362.20
p3972
L7564L
sV843.0
p3973
L5850L
sV260
p3974
L3748L
sV759.82
p3975
L8118L
sV596.81
p3976
L5821L
sV438.89
p3977
L156L
sV379.52
p3978
L8108L
sV944.10
p3979
L2748L
sV812.44
p3980
L4032L
sV362.11
p3981
L762L
sV803.40
p3982
L5643L
sV786.51
p3983
L265L
sV815.01
p3984
L6016L
sV557.9
p3985
L1658L
sV346.03
p3986
L3705L
sV237.72
p3987
L7383L
sV910.5
p3988
L3615L
sV367.4
p3989
L206L
sV457.2
p3990
L3816L
sV435.0
p3991
L5936L
sV112.5
p3992
L2258L
sV537.6
p3993
L5752L
sV807.09
p3994
L1149L
sV304.20
p3995
L1818L
sVV61.10
p3996
L3310L
sV480.2
p3997
L4245L
sV596.59
p3998
L3186L
sV015.00
p3999
L5727L
sVE819.4
p4000
L8319L
sV357.4
p4001
L1090L
sV123.1
p4002
L5874L
sV812.01
p4003
L596L
sV312.30
p4004
L3288L
sV339.3
p4005
L4174L
sV360.3
p4006
L6867L
sV078.88
p4007
L8383L
sV040.2
p4008
L5539L
sVE812.6
p4009
L8212L
sV836.0
p4010
L100L
sV736.05
p4011
L2631L
sV276.51
p4012
L28L
sV242.20
p4013
L296L
sV709.00
p4014
L2454L
sV790.8
p4015
L6451L
sV848.42
p4016
L3158L
sV099.50
p4017
L8009L
sVV03.82
p4018
L634L
sV733.0
p4019
L4591L
sV373.01
p4020
L2698L
sV327.8
p4021
L3663L
sV537.9
p4022
L1458L
sV553.3
p4023
L295L
sV715.22
p4024
L7992L
sV743.56
p4025
L6560L
sV296.13
p4026
L7607L
sV346.83
p4027
L7078L
sVV58.0
p4028
L1872L
sV308.1
p4029
L4370L
sV728.71
p4030
L881L
sV532.50
p4031
L5750L
sV297.9
p4032
L2167L
sV050.00
p4033
L4471L
sV339.05
p4034
L5070L
sVV62.9
p4035
L4934L
sV841.8
p4036
L3699L
sV715.09
p4037
L188L
sV077.8
p4038
L4511L
sV297.1
p4039
L2082L
sV928.3
p4040
L6036L
sV680.2
p4041
L3599L
sV616.9
p4042
L3744L
sV711.05
p4043
L4653L
sV553.21
p4044
L2406L
sV738.19
p4045
L4509L
sVV58.65
p4046
L544L
sVV23.5
p4047
L4794L
sV369.15
p4048
L8536L
sV370.21
p4049
L1804L
sV369
p4050
L7130L
sVV13.65
p4051
L3519L
sV388.10
p4052
L5547L
sV277.84
p4053
L8182L
sV625.2
p4054
L8020L
sV595.2
p4055
L781L
sV715.34
p4056
L2823L
sV584.6
p4057
L8326L
sV235.4
p4058
L3956L
sV923.00
p4059
L2017L
sV174.3
p4060
L1743L
sV442.84
p4061
L8673L
sV770.11
p4062
L8476L
sV871.0
p4063
L4575L
sV366.00
p4064
L3346L
sV307.42
p4065
L839L
sVV05.8
p4066
L2813L
sV873.44
p4067
L1933L
sV746.4
p4068
L4284L
sV288.60
p4069
L167L
sV789.1
p4070
L683L
sV712.12
p4071
L8254L
sVV18.61
p4072
L7857L
sV780.62
p4073
L5427L
sVV65.3
p4074
L2121L
sV648.23
p4075
L2851L
sV424.0
p4076
L963L
sV381.10
p4077
L1880L
sV344.31
p4078
L7823L
sV754.0
p4079
L5227L
sV516.62
p4080
L7673L
sV389.00
p4081
L3033L
sVV58.77
p4082
L1100L
sV596.89
p4083
L1358L
sV438.31
p4084
L6398L
sV367.22
p4085
L2573L
sV158.8
p4086
L8137L
sV374.52
p4087
L5706L
sV079.81
p4088
L7632L
sV742.2
p4089
L3040L
sV957.9
p4090
L2450L
sV434.11
p4091
L4101L
sV730.16
p4092
L3644L
sVE888.9
p4093
L29L
sV110.2
p4094
L7024L
sV511.1
p4095
L5932L
sV031.8
p4096
L7485L
sV932
p4097
L7074L
sV327.26
p4098
L2262L
sV707.23
p4099
L1112L
sV202.93
p4100
L6995L
sV965.4
p4101
L4105L
sV200.40
p4102
L6373L
sV523.10
p4103
L2081L
sV614.0
p4104
L6646L
sVV09.0
p4105
L4594L
sV647.83
p4106
L6240L
sV805.04
p4107
L6102L
sV334.8
p4108
L7861L
sVV16.0
p4109
L318L
sV480.3
p4110
L8512L
sV569.42
p4111
L1206L
sV213.5
p4112
L4634L
sV277.1
p4113
L2109L
sV698.8
p4114
L3110L
sV866.02
p4115
L7143L
sVV13.09
p4116
L3731L
sVV58.76
p4117
L6152L
sV607.2
p4118
L3152L
sVV58.63
p4119
L1981L
sV529.5
p4120
L5421L
sV742.3
p4121
L3017L
sV313.23
p4122
L8170L
sV752.49
p4123
L8355L
sV749.11
p4124
L7436L
sV726.73
p4125
L1056L
sV648.03
p4126
L3195L
sV948.22
p4127
L7981L
sV879.5
p4128
L5301L
sVV06.2
p4129
L7908L
sV173.49
p4130
L8458L
sV151.9
p4131
L585L
sV331.19
p4132
L1840L
sV201.50
p4133
L6288L
sVV24.1
p4134
L4971L
sV296.34
p4135
L1660L
sV744.0
p4136
L7971L
sV272.6
p4137
L3427L
sV272.8
p4138
L3711L
sV487.8
p4139
L1674L
sV648.00
p4140
L3194L
sVE888.1
p4141
L1469L
sV942.14
p4142
L3486L
sV041.5
p4143
L2990L
sV718.03
p4144
L5692L
sV789.04
p4145
L1215L
sV528.9
p4146
L2408L
sV524.04
p4147
L4929L
sV860.5
p4148
L8337L
sV233.1
p4149
L2651L
sV377.12
p4150
L1430L
sVV12.72
p4151
L810L
sV290.11
p4152
L8246L
sV263.1
p4153
L4824L
sV785.42
p4154
L6777L
sV921.3
p4155
L6396L
sV300.0
p4156
L7682L
sV969.4
p4157
L983L
sV353.5
p4158
L8578L
sV272.2
p4159
L119L
sV281.3
p4160
L4702L
sV652.01
p4161
L7516L
sV474.8
p4162
L6213L
sV153.4
p4163
L2259L
sV053.79
p4164
L2930L
sV008.46
p4165
L7721L
sV719.29
p4166
L8152L
sV719.47
p4167
L478L
sV380.39
p4168
L4477L
sV795.02
p4169
L4421L
sV915.2
p4170
L4336L
sV235.2
p4171
L2766L
sV756.19
p4172
L4309L
sVV45.01
p4173
L1541L
sVV09.50
p4174
L8073L
sV783.1
p4175
L227L
sV718.55
p4176
L5869L
sV210.5
p4177
L6578L
sV771.1
p4178
L3180L
sV288.8
p4179
L3008L
sV482.1
p4180
L1772L
sV438.14
p4181
L5527L
sV363.32
p4182
L5175L
sVV14.1
p4183
L308L
sV426.6
p4184
L5485L
sVV28.8
p4185
L8366L
sV616.50
p4186
L3690L
sV663.11
p4187
L5199L
sV295.44
p4188
L2808L
sV797
p4189
L3340L
sV427.2
p4190
L5372L
sV670.24
p4191
L5215L
sVV25.41
p4192
L4528L
sV718.17
p4193
L5441L
sV965.00
p4194
L1425L
sV945.46
p4195
L8289L
sV251.8
p4196
L1390L
sVV85.0
p4197
L2212L
sVV88.02
p4198
L7743L
sV698.4
p4199
L4140L
sVE828.2
p4200
L5545L
sVV67.6
p4201
L1983L
sV911.1
p4202
L7494L
sV667.12
p4203
L5310L
sV312.31
p4204
L5714L
sVV18.9
p4205
L8424L
sV184.0
p4206
L4864L
sV300.29
p4207
L5173L
sVE935.1
p4208
L8155L
sV203.02
p4209
L5897L
sV944.28
p4210
L4402L
sV722.6
p4211
L1377L
sVV10.91
p4212
L3897L
sVE855.1
p4213
L6116L
sV171.6
p4214
L6523L
sV716.15
p4215
L6469L
sVE888.8
p4216
L568L
sV245.9
p4217
L1245L
sV362.07
p4218
L88L
sV788.64
p4219
L4792L
sV362.03
p4220
L2059L
sVV14.8
p4221
L1470L
sV365.12
p4222
L1655L
sV824.9
p4223
L4859L
sV736.73
p4224
L4525L
sVV26.41
p4225
L7183L
sV573.1
p4226
L2807L
sV807.19
p4227
L7246L
sV998.0
p4228
L8605L
sV478.34
p4229
L4521L
sV804.04
p4230
L6188L
sV721.7
p4231
L7999L
sV616.10
p4232
L334L
sVV15.03
p4233
L5764L
sV345.00
p4234
L1096L
sV617.9
p4235
L3440L
sV755.69
p4236
L4362L
sV361.03
p4237
L7691L
sV315.35
p4238
L3208L
sV332
p4239
L8333L
sV261
p4240
L2182L
sV327.52
p4241
L1985L
sV506.1
p4242
L8090L
sV377.49
p4243
L6556L
sV914.5
p4244
L1413L
sV621.2
p4245
L1220L
sVE819.9
p4246
L1681L
sV210.4
p4247
L5014L
sV755.60
p4248
L3036L
sV717.1
p4249
L2157L
sV237.0
p4250
L1786L
sV716.90
p4251
L611L
sV745.3
p4252
L6994L
sVE878.5
p4253
L3253L
sV808.53
p4254
L4974L
sV701.5
p4255
L1579L
sV478.30
p4256
L2587L
sV158.0
p4257
L8198L
sV315.2
p4258
L1440L
sV726.39
p4259
L5476L
sV692.6
p4260
L8011L
sV736.5
p4261
L8485L
sV799.0
p4262
L6339L
sV737.11
p4263
L8169L
sV917.4
p4264
L4144L
sV923.09
p4265
L4790L
sV182.1
p4266
L7424L
sV802.4
p4267
L4658L
sV530.8
p4268
L5137L
sV711.93
p4269
L8189L
sV286.0
p4270
L4359L
sV794.9
p4271
L1308L
sV051.2
p4272
L6992L
sV748.60
p4273
L3432L
sV387.1
p4274
L7007L
sV374.50
p4275
L5037L
sV372.71
p4276
L2130L
sV758.5
p4277
L3020L
sVV72.0
p4278
L557L
sV366.18
p4279
L3057L
sV718.81
p4280
L2074L
sV850
p4281
L6778L
sV478.9
p4282
L4619L
sV130.0
p4283
L7820L
sV719.25
p4284
L8538L
sV997.39
p4285
L4625L
sV305.90
p4286
L203L
sVV13.81
p4287
L4645L
sV691.0
p4288
L1928L
sV557.0
p4289
L1838L
sV551.00
p4290
L8602L
sV641.00
p4291
L5738L
sV388.41
p4292
L7678L
sVE815.6
p4293
L7816L
sV789.31
p4294
L2906L
sV038.49
p4295
L1562L
sV525.22
p4296
L7659L
sV618.2
p4297
L5208L
sV249.60
p4298
L3217L
sV374.9
p4299
L5598L
sV421.0
p4300
L2285L
sV263.0
p4301
L1186L
sV082.2
p4302
L7344L
sV579.3
p4303
L1350L
sV358.01
p4304
L7083L
sV327.13
p4305
L3984L
sV959.9
p4306
L489L
sV730.02
p4307
L5729L
sV730.14
p4308
L2191L
sV446.6
p4309
L1162L
sV441.01
p4310
L3495L
sV834.02
p4311
L2205L
sV718.18
p4312
L4810L
sV173.50
p4313
L2582L
sV727.03
p4314
L1436L
sV997.79
p4315
L7512L
sV365.70
p4316
L2877L
sVE906.5
p4317
L7462L
sVE917.1
p4318
L7896L
sV299.0
p4319
L4478L
sV515
p4320
L1070L
sV380.81
p4321
L6854L
sV996.30
p4322
L2837L
sV784.41
p4323
L3363L
sVV87.2
p4324
L4649L
sV327.29
p4325
L5986L
sV768.9
p4326
L5223L
sV730.13
p4327
L5118L
sV646.71
p4328
L7886L
sV204.22
p4329
L8390L
sV601.1
p4330
L5162L
sV701.9
p4331
L2422L
sVE825.7
p4332
L6887L
sV719.17
p4333
L1296L
sV807.11
p4334
L7283L
sV704.2
p4335
L5955L
sV730.21
p4336
L2583L
sV726.61
p4337
L4258L
sV250.93
p4338
L2299L
sV916.8
p4339
L4361L
sV788.36
p4340
L2508L
sV701.3
p4341
L2512L
sVN95
p4342
L3872L
sVE911
p4343
L6119L
sV681.00
p4344
L1971L
sV823.90
p4345
L6573L
sVV16.51
p4346
L7499L
sVV80.1
p4347
L2821L
sV447.1
p4348
L2704L
sV799.8
p4349
L8340L
sV327.19
p4350
L5935L
sVE927.3
p4351
L4020L
sV550.90
p4352
L798L
sV221.9
p4353
L7212L
sV626.6
p4354
L2199L
sV521.81
p4355
L1507L
sV369.4
p4356
L1312L
sV791.3
p4357
L8450L
sV666.12
p4358
L1997L
sV746.01
p4359
L8232L
sV838.05
p4360
L3053L
sV957.1
p4361
L7747L
sVV70.1
p4362
L6776L
sV786.9
p4363
L1671L
sV695.13
p4364
L3306L
sV789.33
p4365
L2032L
sV572.2
p4366
L22L
sV493.12
p4367
L3993L
sV453.71
p4368
L7149L
sV930.8
p4369
L8510L
sV560.2
p4370
L336L
sVV25.11
p4371
L1686L
sV066.40
p4372
L8628L
sV958.8
p4373
L1012L
sV394.2
p4374
L3373L
sV854.06
p4375
L5146L
sV219.0
p4376
L4783L
sVV15.02
p4377
L5565L
sV461.0
p4378
L1676L
sVV45.11
p4379
L1969L
sV254.8
p4380
L7422L
sV873.41
p4381
L674L
sV078.81
p4382
L7570L
sV997.5
p4383
L5071L
sV117.9
p4384
L2605L
sV574.00
p4385
L251L
sV575.10
p4386
L2355L
sVE974
p4387
L7798L
sV315.31
p4388
L3037L
sV872.01
p4389
L6425L
sV508.9
p4390
L4599L
sV202.86
p4391
L8521L
sV533.41
p4392
L7503L
sV461.2
p4393
L5617L
sV293.89
p4394
L6632L
sV204.80
p4395
L2469L
sVV01.79
p4396
L2030L
sVE935.9
p4397
L7029L
sV371.23
p4398
L4781L
sV304.93
p4399
L1850L
sV564.81
p4400
L2619L
sVV10.87
p4401
L827L
sV848.9
p4402
L2603L
sVV16.1
p4403
L5852L
sV975.5
p4404
L7953L
sV865.01
p4405
L7887L
sV426.89
p4406
L1593L
sV728.0
p4407
L5708L
sV202.72
p4408
L7371L
sV433.30
p4409
L1746L
sV525.71
p4410
L8534L
sV704.02
p4411
L3941L
sV272.3
p4412
L2346L
sV969.8
p4413
L5469L
sVV72.3
p4414
L7751L
sV835.00
p4415
L690L
sV300.02
p4416
L639L
sV376.30
p4417
L1616L
sV722.71
p4418
L1049L
sV077.99
p4419
L4668L
sV789.01
p4420
L404L
sV182.0
p4421
L1276L
sV372.39
p4422
L1759L
sV864.03
p4423
L8257L
sV356.1
p4424
L5489L
sVE936.1
p4425
L3806L
sV201.92
p4426
L7752L
sVV57.89
p4427
L159L
sV157.3
p4428
L7275L
sVE853.8
p4429
L7328L
sV371.60
p4430
L3389L
sV389.14
p4431
L4089L
sV227.5
p4432
L6018L
sVV85.31
p4433
L3695L
sV174.9
p4434
L389L
sVV65.0
p4435
L7578L
sV813.06
p4436
L3832L
sV759.81
p4437
L7203L
sV922.1
p4438
L1013L
sV054.73
p4439
L7021L
sV362.05
p4440
L2443L
sV793.6
p4441
L1207L
sV729.5
p4442
L81L
sV287.41
p4443
L2534L
sV265.0
p4444
L7273L
sV386.12
p4445
L3646L
sVV58.75
p4446
L1767L
sVE968.8
p4447
L595L
sV438.13
p4448
L4152L
sV429.4
p4449
L3589L
sV364.7
p4450
L6868L
sVV44.3
p4451
L719L
sV360.02
p4452
L6732L
sV656.43
p4453
L7766L
sVV18.59
p4454
L7533L
sV370.40
p4455
L2661L
sV3180
p4456
L7180L
sV917.3
p4457
L1605L
sV125.1
p4458
L6884L
sVV55.2
p4459
L326L
sV214.4
p4460
L2740L
sV786.8
p4461
L2878L
sV438.83
p4462
L4507L
sV364.77
p4463
L7837L
sV716.66
p4464
L2873L
sV368.2
p4465
L1858L
sV429.0
p4466
L7977L
sV112.82
p4467
L3242L
sV801.41
p4468
L8610L
sV374.82
p4469
L6192L
sV348.39
p4470
L1454L
sV524.62
p4471
L2478L
sV737.39
p4472
L1018L
sV656.70
p4473
L5289L
sV372.15
p4474
L6328L
sV690.8
p4475
L2802L
sV840.7
p4476
L4012L
sVE029.2
p4477
L6989L
sV437.3
p4478
L1841L
sV620.5
p4479
L7742L
sV811.03
p4480
L3626L
sV868.13
p4481
L8036L
sVV60.6
p4482
L2520L
sV747.81
p4483
L4582L
sV944.25
p4484
L8002L
sV793.5
p4485
L339L
sV721.1
p4486
L1697L
sV312.34
p4487
L442L
sV803.25
p4488
L8055L
sV784.0
p4489
L39L
sV041.49
p4490
L158L
sV730.10
p4491
L2720L
sV847.9
p4492
L1200L
sV205.22
p4493
L7197L
sV820.22
p4494
L3005L
sV453.79
p4495
L2974L
sV040.89
p4496
L6224L
sV600.11
p4497
L5882L
sV414.07
p4498
L8599L
sVE934.5
p4499
L6735L
sV737.32
p4500
L7585L
sV722.52
p4501
L739L
sVE929.2
p4502
L5571L
sVV25.12
p4503
L342L
sV425.18
p4504
L3428L
sV627.9
p4505
L1982L
sV702.19
p4506
L2580L
sV912.4
p4507
L3924L
sV007.0
p4508
L7933L
sV794.5
p4509
L1544L
sV663.81
p4510
L7418L
sV750.9
p4511
L7477L
sV365.62
p4512
L3587L
sV996.56
p4513
L4306L
sV557.1
p4514
L1837L
sV535.51
p4515
L1478L
sVV10.29
p4516
L6705L
sV627.1
p4517
L1728L
sV453.75
p4518
L8677L
sV212.3
p4519
L5221L
sV205.10
p4520
L1805L
sV491.9
p4521
L2604L
sV995.59
p4522
L8180L
sV716.44
p4523
L5072L
sV757.1
p4524
L5963L
sV211.8
p4525
L7471L
sV596.3
p4526
L2253L
sVE967.0
p4527
L3538L
sV945.30
p4528
L7889L
sV443.21
p4529
L7961L
sV373.00
p4530
L1286L
sVV44.1
p4531
L169L
sVV85.37
p4532
L2449L
sV440.20
p4533
L605L
sV236.2
p4534
L1216L
sV372.9
p4535
L8162L
sVV89.01
p4536
L4043L
sV342.81
p4537
L4508L
sV352.2
p4538
L8354L
sV453.8
p4539
L8408L
sV233.32
p4540
L2650L
sV719.60
p4541
L7616L
sV339.09
p4542
L6492L
sVV63.8
p4543
L7274L
sV831.04
p4544
L4256L
sV307.44
p4545
L5455L
sV307.43
p4546
L7768L
sV087.9
p4547
L8295L
sVE967.7
p4548
L4806L
sV366.1
p4549
L8663L
sV112.85
p4550
L8347L
sV743.57
p4551
L2113L
sV223.3
p4552
L1809L
sVV25.9
p4553
L3140L
sV945.20
p4554
L3630L
sV789.5
p4555
L6711L
sVV04.8
p4556
L8217L
sVV04.0
p4557
L1798L
sV945.25
p4558
L7419L
sV565.1
p4559
L2773L
sV905.9
p4560
L4228L
sV806.06
p4561
L8321L
sV915.8
p4562
L5973L
sV518.81
p4563
L176L
sV702.0
p4564
L671L
sVV85.21
p4565
L3128L
sV574.10
p4566
L1242L
sV368.00
p4567
L4205L
sVV07.52
p4568
L6212L
sV283.72
p4569
L5236L
sV997.9
p4570
L7319L
sV487.0
p4571
L2884L
sV729.81
p4572
L236L
sV368.03
p4573
L2664L
sVV60.81
p4574
L7914L
sV924.21
p4575
L1927L
sV967.8
p4576
L1782L
sVV72.42
p4577
L2040L
sV054.12
p4578
L3989L
sV835.10
p4579
L7746L
sV291.4
p4580
L6080L
sV300
p4581
L7131L
sV039.2
p4582
L6844L
sV716.83
p4583
L5428L
sV983.0
p4584
L6798L
sV589.1
p4585
L4538L
sV284.2
p4586
L8503L
sV996.00
p4587
L3592L
sV273.9
p4588
L5095L
sV437.7
p4589
L7148L
sV339.85
p4590
L5448L
sVE930.5
p4591
L6030L
sV715.25
p4592
L7057L
sV011.96
p4593
L8398L
sV838.01
p4594
L6566L
sV690.10
p4595
L1076L
sV535.00
p4596
L135L
sV303.92
p4597
L641L
sV746.85
p4598
L3493L
sV225.4
p4599
L2991L
sVV12.02
p4600
L2545L
sVV52.4
p4601
L5484L
sV741.90
p4602
L2780L
sV919.4
p4603
L2068L
sVE988.1
p4604
L3500L
sVV72.7
p4605
L7408L
sV492
p4606
L8112L
sVV61.20
p4607
L5254L
sVV87.45
p4608
L7546L
sV671.30
p4609
L6921L
sV527.3
p4610
L1080L
sV793.3
p4611
L1372L
sV362.60
p4612
L2056L
sV710.0
p4613
L371L
sV659.53
p4614
L5802L
sV870.9
p4615
L7733L
sV768.7
p4616
L8352L
sV505
p4617
L4435L
sV483.0
p4618
L5946L
sV733.82
p4619
L2549L
sVE860.3
p4620
L7939L
sV574.40
p4621
L5792L
sVV79.0
p4622
L1690L
sV958.92
p4623
L2493L
sV079.3
p4624
L4231L
sVE928.5
p4625
L6901L
sV523.01
p4626
L4818L
sV192.0
p4627
L7537L
sV038.19
p4628
L4307L
sVV85.41
p4629
L927L
sV366.02
p4630
L3129L
sV984.0
p4631
L8561L
sV389.08
p4632
L6266L
sV524.59
p4633
L7008L
sV165.9
p4634
L5782L
sVE928.9
p4635
L103L
sV733.09
p4636
L1924L
sV296.5
p4637
L7303L
sV304.31
p4638
L1441L
sV330.0
p4639
L7384L
sV923.9
p4640
L32L
sV477.0
p4641
L290L
sV244.8
p4642
L1913L
sV377.30
p4643
L4561L
sV944.07
p4644
L6594L
sV239.4
p4645
L4487L
sV802.27
p4646
L8223L
sVV15.83
p4647
L6445L
sV724.00
p4648
L381L
sV713.5
p4649
L1665L
sV380.89
p4650
L4852L
sV783.9
p4651
L1657L
sV726.91
p4652
L883L
sV338.18
p4653
L323L
sV718.35
p4654
L3185L
sV227.3
p4655
L1788L
sV958.3
p4656
L1696L
sV799.52
p4657
L1410L
sV279.09
p4658
L5031L
sVV71.8
p4659
L6368L
sV821.11
p4660
L6571L
sV861.21
p4661
L2436L
sV860.1
p4662
L2447L
sV405.99
p4663
L2633L
sV787.24
p4664
L284L
sV719.83
p4665
L5609L
sV173.59
p4666
L7222L
sV597.81
p4667
L4635L
sV215.3
p4668
L887L
sV727.82
p4669
L4780L
sV288.59
p4670
L3231L
sV999.32
p4671
L1366L
sV800.16
p4672
L8396L
sV140.0
p4673
L8524L
sV253.6
p4674
L1380L
sV531.31
p4675
L5753L
sVV11.3
p4676
L76L
sV381.00
p4677
L1936L
sVE930.3
p4678
L6895L
sV438.32
p4679
L8683L
sV806.60
p4680
L6816L
sV633.00
p4681
L7164L
sV296.52
p4682
L2810L
sVV71.5
p4683
L4817L
sV972.2
p4684
L7790L
sV427.69
p4685
L960L
sV976.5
p4686
L8576L
sVV61.42
p4687
L5440L
sV676.54
p4688
L8688L
sV732.0
p4689
L7791L
sVE933.8
p4690
L7920L
sV201.93
p4691
L6287L
sV154.8
p4692
L5109L
sV369.08
p4693
L7744L
sV208.90
p4694
L1802L
sV845.12
p4695
L2431L
sV922.31
p4696
L1475L
sV208.11
p4697
L2466L
sV795.52
p4698
L7002L
sV552.20
p4699
L4898L
sV707.02
p4700
L4493L
sV603.8
p4701
L6222L
sV815.00
p4702
L3609L
sV304.62
p4703
L3226L
sV756.3
p4704
L6881L
sV786.00
p4705
L2133L
sVV73.98
p4706
L5508L
sVV15.52
p4707
L13L
sV417.9
p4708
L3619L
sV663.21
p4709
L5307L
sV787.04
p4710
L5139L
sV719.64
p4711
L2770L
sV205.11
p4712
L4826L
sV959.3
p4713
L1243L
sV695.10
p4714
L7969L
sV426.0
p4715
L2228L
sV997.09
p4716
L4053L
sVV40.1
p4717
L6155L
sV716.61
p4718
L3525L
sV404.10
p4719
L2723L
sV874.00
p4720
L7366L
sV847.2
p4721
L384L
sV692.74
p4722
L3170L
sVE939.1
p4723
L6131L
sV646.30
p4724
L7171L
sV331.7
p4725
L5296L
sV011.83
p4726
L8238L
sVE854.3
p4727
L2498L
sV442.81
p4728
L5599L
sVV21.2
p4729
L7402L
sV705.9
p4730
L6421L
sVV60.0
p4731
L994L
sV752.65
p4732
L8374L
sV892.1
p4733
L1121L
sV117.2
p4734
L8434L
sV187.4
p4735
L4550L
sV274.03
p4736
L4562L
sV278.3
p4737
L7535L
sV306.9
p4738
L1695L
sV720.2
p4739
L1785L
sV378.52
p4740
L5965L
sV620.8
p4741
L3048L
sV730.27
p4742
L1115L
sV753.8
p4743
L6270L
sV272.9
p4744
L1584L
sV681.1
p4745
L5765L
sV459.33
p4746
L5049L
sV959.09
p4747
L499L
sVE924.1
p4748
L6615L
sV295.25
p4749
L5134L
sV112.89
p4750
L4520L
sV860.3
p4751
L8519L
sV045.21
p4752
L7321L
sV296.40
p4753
L2140L
sV669.81
p4754
L8164L
sV268.1
p4755
L8058L
sV330.8
p4756
L1929L
sV274.9
p4757
L774L
sV794.31
p4758
L528L
sV733.99
p4759
L931L
sV187.2
p4760
L3887L
sV379.23
p4761
L2014L
sV382.2
p4762
L8474L
sV716.43
p4763
L6139L
sV210.1
p4764
L2801L
sV796.3
p4765
L1736L
sV518.51
p4766
L459L
sV443.89
p4767
L716L
sV057.0
p4768
L5502L
sV374.32
p4769
L588L
sV426.50
p4770
L6251L
sV420.99
p4771
L8412L
sVV10.60
p4772
L3234L
sV852.21
p4773
L642L
sV540.9
p4774
L4238L
sVV02.61
p4775
L2197L
sV344.1
p4776
L419L
sV301.0
p4777
L7132L
sV211.0
p4778
L4064L
sV277.86
p4779
L4840L
sV484.1
p4780
L7918L
sVV25.09
p4781
L233L
sV008.63
p4782
L4430L
sV642.44
p4783
L6093L
sV361.33
p4784
L1509L
sV779.89
p4785
L5231L
sV629.20
p4786
L6611L
sVV72.83
p4787
L222L
sV077.4
p4788
L8343L
sV755.52
p4789
L4638L
sV438.6
p4790
L5032L
sV552.00
p4791
L2669L
sV592.0
p4792
L244L
sVV17.7
p4793
L3570L
sV747.41
p4794
L8493L
sVV58.30
p4795
L1774L
sVE825.0
p4796
L5734L
sV383.33
p4797
L6800L
sV228.01
p4798
L2563L
sV569.84
p4799
L3388L
sV813.18
p4800
L7337L
sV722.73
p4801
L2471L
sV388.01
p4802
L2532L
sV315.09
p4803
L8167L
sVE924.2
p4804
L5375L
sV619.8
p4805
L7942L
sV3159
p4806
L7696L
sV527.6
p4807
L4616L
sV847.0
p4808
L955L
sV642.11
p4809
L8676L
sV655.13
p4810
L4691L
sV441.02
p4811
L7805L
sV648.24
p4812
L2003L
sV908.0
p4813
L6612L
sV626.9
p4814
L1591L
sV516.8
p4815
L1557L
sV210.7
p4816
L4874L
sV941.27
p4817
L2747L
sV597.80
p4818
L4531L
sV531.30
p4819
L4861L
sV709.01
p4820
L3676L
sV805.01
p4821
L6015L
sVV20.0
p4822
L8327L
sV880.10
p4823
L8016L
sV863.89
p4824
L4975L
sV278.0
p4825
L8528L
sV362.51
p4826
L1154L
sV916.2
p4827
L1157L
sV153.6
p4828
L5291L
sV854.02
p4829
L7749L
sV655.73
p4830
L4185L
sV209.52
p4831
L7332L
sV362.55
p4832
L7378L
sV370.34
p4833
L2660L
sV599.6
p4834
L6618L
sV252.00
p4835
L369L
sV905.1
p4836
L3325L
sV173.30
p4837
L3979L
sV640.00
p4838
L2042L
sV728.81
p4839
L8085L
sV747.3
p4840
L3612L
sVE000.9
p4841
L1733L
sV520.5
p4842
L7737L
sV380.00
p4843
L3490L
sV646.64
p4844
L6780L
sV140.1
p4845
L4203L
sV053.8
p4846
L5868L
sV454.1
p4847
L898L
sV642.91
p4848
L6514L
sV323.81
p4849
L4931L
sVV26.29
p4850
L8100L
sV971.2
p4851
L6340L
sVE804.0
p4852
L5721L
sV994.7
p4853
L4684L
sV659.60
p4854
L8590L
sV053.20
p4855
L3783L
sVV11.9
p4856
L3122L
sV658.83
p4857
L7234L
sV719.07
p4858
L1188L
sV760.71
p4859
L4943L
sVL00
p4860
L7750L
sVV82.5
p4861
L4940L
sV948.00
p4862
L1637L
sVV45.77
p4863
L3909L
sVE824.1
p4864
L4310L
sV719.4
p4865
L7071L
sV286.59
p4866
L2955L
sV924.3
p4867
L2368L
sV146.1
p4868
L7266L
sV295.05
p4869
L7278L
sV751.61
p4870
L8596L
sVV58.6
p4871
L3817L
sV025
p4872
L8672L
sV968.0
p4873
L5594L
sV223.2
p4874
L8088L
sV232.8
p4875
L7223L
sV162.4
p4876
L7550L
sV795.05
p4877
L1689L
sV271.4
p4878
L5713L
sV716.11
p4879
L3275L
sV996.68
p4880
L5437L
sV851.80
p4881
L4745L
sV302.9
p4882
L3472L
sV661.11
p4883
L7587L
sV884.0
p4884
L675L
sV506.0
p4885
L1783L
sV521.31
p4886
L7787L
sV017.44
p4887
L8601L
sV973.5
p4888
L8245L
sV369.20
p4889
L5357L
sVE888
p4890
L2160L
sV209.55
p4891
L4269L
sV658.93
p4892
L2390L
sV717.83
p4893
L4363L
sV389.16
p4894
L1330L
sVV10.06
p4895
L734L
sV303.9
p4896
L5188L
sV784.44
p4897
L6920L
sV718.24
p4898
L8486L
sV998.12
p4899
L749L
sV525.11
p4900
L3811L
sV908.9
p4901
L47L
sV852.03
p4902
L8288L
sV819.0
p4903
L2893L
sV253.8
p4904
L3387L
sV282.40
p4905
L6697L
sV304.13
p4906
L8634L
sV360.63
p4907
L7838L
sV333.0
p4908
L3555L
sV681.02
p4909
L5020L
sV732.1
p4910
L4589L
sV386.35
p4911
L6643L
sVE920.9
p4912
L5160L
sV804.00
p4913
L8652L
sV344.03
p4914
L3947L
sV376.89
p4915
L8115L
sV453.84
p4916
L5362L
sV730.17
p4917
L1123L
sV308.4
p4918
L1263L
sV374.41
p4919
L7264L
sV523.00
p4920
L2788L
sV388.69
p4921
L5488L
sV364.00
p4922
L1947L
sV312.82
p4923
L6532L
sVV85.42
p4924
L2083L
sV377.15
p4925
L7314L
sV202.80
p4926
L573L
sV999.31
p4927
L1365L
sV794.8
p4928
L899L
sV146.0
p4929
L6641L
sV038.8
p4930
L3657L
sV530.20
p4931
L809L
sV823.22
p4932
L609L
sV279.00
p4933
L5416L
sV963.1
p4934
L5326L
sV655.51
p4935
L2396L
sV842.01
p4936
L3061L
sV997.32
p4937
L2120L
sV360.41
p4938
L3621L
sV405.11
p4939
L3712L
sV824.7
p4940
L6754L
sV621.35
p4941
L8150L
sV756.53
p4942
L7621L
sV173.2
p4943
L8001L
sV799.51
p4944
L2601L
sV574.20
p4945
L248L
sV784.91
p4946
L1961L
sV789.59
p4947
L516L
sV362.63
p4948
L1508L
sV737.21
p4949
L7774L
sV735.3
p4950
L6832L
sV287.2
p4951
L3397L
sV363.21
p4952
L5237L
sV576.2
p4953
L1176L
sV305.21
p4954
L1132L
sV275.02
p4955
L6032L
sV451.83
p4956
L5217L
sV401.1
p4957
L390L
sV593.82
p4958
L6527L
sV788.29
p4959
L3877L
sV812.40
p4960
L3830L
sV633.90
p4961
L2046L
sV365.03
p4962
L2341L
sV307.41
p4963
L109L
sVV74.1
p4964
L1705L
sV112.4
p4965
L2842L
sV380.14
p4966
L6656L
sV779.1
p4967
L7039L
sV440.22
p4968
L1830L
sV289.2
p4969
L2085L
sV584.9
p4970
L445L
sV611.81
p4971
L1492L
sV614.4
p4972
L706L
sV550.92
p4973
L1945L
sVV21.8
p4974
L7050L
sV908.3
p4975
L7951L
sV789.02
p4976
L1303L
sV748.5
p4977
L6157L
sV838.04
p4978
L5814L
sV656.91
p4979
L2001L
sV692.3
p4980
L5990L
sV367.51
p4981
L6909L
sV618.82
p4982
L718L
sV622.9
p4983
L4029L
sVE003.0
p4984
L6896L
sVV57.1
p4985
L958L
sV780.53
p4986
L1625L
sV361.11
p4987
L7717L
sV296.8
p4988
L5555L
sV496.
p4989
L6145L
sVV28.9
p4990
L3754L
sVE925.0
p4991
L4856L
sV362.31
p4992
L6794L
sV327.01
p4993
L1807L
sV671.33
p4994
L5566L
sV884.2
p4995
L7281L
sV453.9
p4996
L892L
sV569.87
p4997
L8667L
sV521.08
p4998
L4075L
sV958.4
p4999
L4390L
sV806.04
p5000
L7116L
sV194.9
p5001
L8199L
sV214.9
p5002
L2211L
sV250.90
p5003
L878L
sV190.2
p5004
L8400L
sV801.21
p5005
L6659L
sV300.09
p5006
L2235L
sV472.0
p5007
L1302L
sV041.41
p5008
L7345L
sV642.51
p5009
L5287L
sV711.18
p5010
L3573L
sV802.8
p5011
L1832L
sV433.21
p5012
L6330L
sV249.80
p5013
L3463L
sV370.35
p5014
L6249L
sV372.72
p5015
L1855L
sVV54.17
p5016
L3844L
sV916.0
p5017
L73L
sV011.80
p5018
L1128L
sV453.42
p5019
L237L
sV054.42
p5020
L6793L
sV236.3
p5021
L6028L
sV706.8
p5022
L578L
sV611.89
p5023
L397L
sV727.00
p5024
L113L
sV388.12
p5025
L6199L
sV306.8
p5026
L3604L
sV516.69
p5027
L6360L
sVV12.79
p5028
L904L
sV747.11
p5029
L8082L
sV466.11
p5030
L110L
sV608.20
p5031
L8415L
sV446.7
p5032
L6686L
sVV18.0
p5033
L1701L
sV654.40
p5034
L8608L
sVE934.7
p5035
L7952L
sV618.9
p5036
L4131L
sV680.5
p5037
L3219L
sV743.32
p5038
L8371L
sV996.57
p5039
L6518L
sVV10.89
p5040
L2250L
sV379.41
p5041
L1750L
sV339.42
p5042
L2816L
sVE939.3
p5043
L5572L
sV716.40
p5044
L2310L
sV726.10
p5045
L501L
sVE868.9
p5046
L6482L
sV364.72
p5047
L7927L
sV814.02
p5048
L5658L
sVE828.9
p5049
L6761L
sVV28.1
p5050
L5213L
sV808.49
p5051
L2966L
sV864.01
p5052
L7329L
sV253.9
p5053
L5029L
sV911.4
p5054
L3302L
sVV23.87
p5055
L4051L
sV362.06
p5056
L2021L
sV913.8
p5057
L5515L
sV212.7
p5058
L1948L
sV893.0
p5059
L451L
sV381.01
p5060
L228L
sVV78.8
p5061
L4598L
sVV07.39
p5062
L3720L
sVE866.4
p5063
L8185L
sV820.13
p5064
L8358L
sV315.02
p5065
L4848L
sV344.02
p5066
L4841L
sV188.5
p5067
L6013L
sV239.6
p5068
L3800L
sV747.31
p5069
L3617L
sVV85.33
p5070
L1053L
sV719.84
p5071
L2715L
sV008.62
p5072
L7188L
sV033.0
p5073
L7703L
sVE008.1
p5074
L7998L
sV795.5
p5075
L4000L
sVE007.1
p5076
L8220L
sV553.1
p5077
L243L
sV567.31
p5078
L4312L
sV282.0
p5079
L6104L
sV162.3
p5080
L1776L
sV304.63
p5081
L4923L
sV264.9
p5082
L7137L
sVE013.0
p5083
L3610L
sV334.9
p5084
L7221L
sV258.1
p5085
L6128L
sVV90.32
p5086
L3238L
sVV54.13
p5087
L1614L
sV872.8
p5088
L7286L
sVE850.2
p5089
L2380L
sVV10.71
p5090
L7566L
sV633.11
p5091
L6449L
sV211.2
p5092
L3958L
sV525.13
p5093
L4524L
sVE879.4
p5094
L6627L
sV611.4
p5095
L8256L
sV274.02
p5096
L3153L
sV802.7
p5097
L4813L
sV661.03
p5098
L5908L
sV146.8
p5099
L3777L
sV623.8
p5100
L302L
sV723.4
p5101
L926L
sV530.3
p5102
L2216L
sVV54.1
p5103
L6918L
sV710.9
p5104
L4368L
sVV60.8
p5105
L8611L
sV717.9
p5106
L884L
sV756.50
p5107
L4146L
sV644.10
p5108
L6467L
sV726.8
p5109
L3737L
sV355.1
p5110
L3859L
sV789.9
p5111
L1565L
sV033.9
p5112
L7542L
sVV42.1
p5113
L7407L
sV736.06
p5114
L6773L
sV712.26
p5115
L7757L
sV202.05
p5116
L5747L
sV346.90
p5117
L1001L
sV716.24
p5118
L8132L
sV362.81
p5119
L3150L
sV379.99
p5120
L1652L
sV791.9
p5121
L101L
sV973.8
p5122
L8091L
sV733.92
p5123
L2835L
sV110.9
p5124
L2739L
sV315
p5125
L4384L
sV215.2
p5126
L2771L
sV112.3
p5127
L1258L
sV716.65
p5128
L6733L
sV556.8
p5129
L5856L
sV642.30
p5130
L1995L
sV943.25
p5131
L4404L
sV535.41
p5132
L3391L
sV001.0
p5133
L7185L
sV555.1
p5134
L3973L
sV625.70
p5135
L3593L
sV319.0
p5136
L6889L
sV711.03
p5137
L5683L
sV518.82
p5138
L1456L
sV342.11
p5139
L4697L
sV238.71
p5140
L1016L
sV782.4
p5141
L1172L
sV041.05
p5142
L6392L
sV823.81
p5143
L4297L
sV295.90
p5144
L981L
sV333.72
p5145
L5161L
sV426.53
p5146
L1950L
sV353.0
p5147
L1622L
sV952.14
p5148
L6023L
sV414.02
p5149
L4157L
sV836.54
p5150
L5359L
sV388.72
p5151
L4822L
sV758.31
p5152
L3652L
sV556.1
p5153
L5157L
sVE920.5
p5154
L3673L
sV581.1
p5155
L5012L
sV336.3
p5156
L7092L
sV532.90
p5157
L801L
sV385.00
p5158
L4189L
sV596.4
p5159
L4672L
sV518.0
p5160
L19L
sV530.6
p5161
L1677L
sV370.00
p5162
L5865L
sV277.5
p5163
L2106L
sV362.54
p5164
L2249L
sV596.8
p5165
L3659L
sV656.71
p5166
L4047L
sVE876.9
p5167
L6218L
sV655.81
p5168
L7235L
sV569.2
p5169
L7827L
sV656.41
p5170
L8140L
sV878.5
p5171
L7809L
sV342.90
p5172
L172L
sV728.82
p5173
L5775L
sV287.0
p5174
L5800L
sV719.87
p5175
L4117L
sVV10.22
p5176
L7532L
sV446.4
p5177
L3636L
sV714.2
p5178
L4263L
sV205.00
p5179
L2472L
sV730.24
p5180
L2189L
sV844.0
p5181
L2708L
sV353.9
p5182
L6919L
sV745.69
p5183
L6856L
sV796.2
p5184
L40L
sV726.13
p5185
L874L
sV704.01
p5186
L2513L
sV371.62
p5187
L7832L
sV471.0
p5188
L3279L
sV750.6
p5189
L6159L
sV434.91
p5190
L153L
sV717.6
p5191
L3474L
sV585.2
p5192
L2295L
sV212.1
p5193
L4875L
sV528.00
p5194
L2198L
sVE849.1
p5195
L8612L
sVV16.6
p5196
L5853L
sV716.19
p5197
L6971L
sV616.89
p5198
L866L
sV238.72
p5199
L7125L
sV695.59
p5200
L8195L
sV715.98
p5201
L1257L
sV723.0
p5202
L1740L
sV743.30
p5203
L6459L
sV372.53
p5204
L4397L
sV717.5
p5205
L5408L
sV536.41
p5206
L3793L
sV998.89
p5207
L3597L
sV995.63
p5208
L3423L
sV831.02
p5209
L6893L
sVE933.1
p5210
L1874L
sV649.73
p5211
L5741L
sV377.11
p5212
L4242L
sV434.0
p5213
L6787L
sV304.91
p5214
L1908L
sV459.12
p5215
L902L
sVV87.46
p5216
L543L
sV730.97
p5217
L4298L
sV621.8
p5218
L1726L
sV852.00
p5219
L4272L
sV298.34
p5220
L4488L
sV388.8
p5221
L5618L
sVV15.49
p5222
L7950L
sV307.9
p5223
L425L
sV618.3
p5224
L2339L
sV255.10
p5225
L6020L
sV111.1
p5226
L5261L
sV230.6
p5227
L4869L
sV201.90
p5228
L2753L
sV403.10
p5229
L1975L
sV614.5
p5230
L7430L
sV284.89
p5231
L4316L
sV770.5
p5232
L6356L
sV339.01
p5233
L6493L
sV647.60
p5234
L5900L
sV717.41
p5235
L5123L
sVV45.74
p5236
L7660L
sV574.01
p5237
L7095L
sV558.1
p5238
L5720L
sVE016.9
p5239
L5144L
sV239.0
p5240
L1952L
sV150.9
p5241
L2530L
sVV15.51
p5242
L400L
sV218.9
p5243
L2033L
sVE849.3
p5244
L4450L
sV478.74
p5245
L2318L
sV369.01
p5246
L8054L
sV456.21
p5247
L1937L
sVV73.3
p5248
L8671L
sV362.30
p5249
L2595L
sVE950.7
p5250
L8052L
sV833.04
p5251
L6370L
sV742.8
p5252
L7100L
sV361.00
p5253
L5133L
sV296.04
p5254
L3585L
sV733.94
p5255
L3060L
sV506.2
p5256
L7795L
sV948.11
p5257
L5374L
sV270.4
p5258
L3860L
sV712.21
p5259
L6082L
sVV77.7
p5260
L8589L
sV440.21
p5261
L1104L
sV624.9
p5262
L2241L
sV813.05
p5263
L2657L
sV787.91
p5264
L258L
sV780.02
p5265
L979L
sV139.0
p5266
L8625L
sV288.2
p5267
L3569L
sV369.9
p5268
L1282L
sV303.02
p5269
L2025L
sV456.4
p5270
L4380L
sV813.10
p5271
L7769L
sV641.80
p5272
L698L
sV376.50
p5273
L3728L
sV655.03
p5274
L5646L
sV786.1
p5275
L3335L
sV583.1
p5276
L8520L
sV237.70
p5277
L3671L
sV701.8
p5278
L3220L
sV745.2
p5279
L4911L
sV120.0
p5280
L8541L
sV151.4
p5281
L5530L
sV295.73
p5282
L4218L
sV863.90
p5283
L6846L
sV313.89
p5284
L6186L
sV250
p5285
L7641L
sV825.21
p5286
L5984L
sV298.1
p5287
L7524L
sV939.0
p5288
L4277L
sVE013.9
p5289
L4587L
sV660.41
p5290
L2854L
sV280.8
p5291
L929L
sV711.94
p5292
L6051L
sVV77.6
p5293
L3462L
sV250.30
p5294
L2150L
sV110.0
p5295
L2732L
sV635.90
p5296
L6302L
sV483.8
p5297
L3966L
sV285.21
p5298
L1965L
sV599.89
p5299
L5313L
sVV58.74
p5300
L1452L
sV924.01
p5301
L593L
sV618.04
p5302
L5148L
sV968.5
p5303
L8453L
sV998.4
p5304
L4982L
sV337.1
p5305
L1714L
sV295.00
p5306
L1898L
sV587
p5307
L2291L
sV868.10
p5308
L5516L
sVV25.40
p5309
L3835L
sV327.34
p5310
L6772L
sVE945.2
p5311
L5551L
sV381.04
p5312
L7055L
sV945.16
p5313
L7688L
sV956.5
p5314
L6333L
sVE942.0
p5315
L3691L
sV784.99
p5316
L138L
sV755.39
p5317
L5844L
sV945.06
p5318
L5247L
sV238.77
p5319
L4473L
sV942.00
p5320
L5859L
sV354.4
p5321
L1317L
sV510.0
p5322
L4725L
sV380.22
p5323
L2361L
sV642.00
p5324
L6719L
sVE905.1
p5325
L4543L
sVV12.2
p5326
L2554L
sV920
p5327
L654L
sVV43.65
p5328
L632L
sV298.3
p5329
L5472L
sV713.0
p5330
L6305L
sV250.11
p5331
L5675L
sV596.54
p5332
L1566L
sV653.03
p5333
L7487L
sV281.0
p5334
L121L
sV237.5
p5335
L1978L
sV825.25
p5336
L1114L
sV315.8
p5337
L1374L
sVV85.38
p5338
L1885L
sV999.80
p5339
L2969L
sV209.25
p5340
L7495L
sV780.0
p5341
L5006L
sV471.8
p5342
L6424L
sV281.4
p5343
L2535L
sV305.43
p5344
L5992L
sV800.02
p5345
L7316L
sVE879.1
p5346
L2662L
sV624.1
p5347
L2054L
sV296.02
p5348
L3839L
sV897.7
p5349
L2305L
sV754.2
p5350
L4603L
sV190.3
p5351
L8402L
sVV01.6
p5352
L2163L
sV807.05
p5353
L2438L
sV379.21
p5354
L5L
sV652.00
p5355
L7748L
sV674.34
p5356
L1239L
sV617.4
p5357
L7943L
sV669.70
p5358
L8689L
sV041.4
p5359
L2251L
sV625.4
p5360
L6702L
sVE975
p5361
L4678L
sVV83.89
p5362
L5483L
sV729.4
p5363
L1083L
sV801.00
p5364
L5298L
sVV10.61
p5365
L5089L
sV774.6
p5366
L8310L
sV719.85
p5367
L3131L
sV320.2
p5368
L8060L
sV715
p5369
L2155L
sV011.92
p5370
L7850L
sVV40.0
p5371
L1418L
sV715.89
p5372
L2232L
sV423.1
p5373
L7730L
sVE935.6
p5374
L5985L
sV580.9
p5375
L2636L
sV649.32
p5376
L6530L
sV255.0
p5377
L5079L
sV464.00
p5378
L1824L
sV860.0
p5379
L2437L
sV242.81
p5380
L6960L
sVE965.0
p5381
L8517L
sV726.11
p5382
L1784L
sV379.31
p5383
L3453L
sV945.01
p5384
L7121L
sV259.4
p5385
L4867L
sV998.51
p5386
L4098L
sV302.73
p5387
L5266L
sV788.63
p5388
L127L
sV787.1
p5389
L1678L
sV364.89
p5390
L6982L
sV623.9
p5391
L1958L
sV724.5
p5392
L183L
sV788.42
p5393
L3212L
sV753.0
p5394
L3176L
sV371.10
p5395
L8586L
sV611.1
p5396
L395L
sV832.01
p5397
L3027L
sV315.9
p5398
L130L
sV905.8
p5399
L2829L
sV345.10
p5400
L623L
sV447.4
p5401
L4293L
sV208.10
p5402
L8156L
sV295.92
p5403
L3668L
sVV39.00
p5404
L8207L
sV711.06
p5405
L1521L
sV732.4
p5406
L7792L
sV991.9
p5407
L6487L
sV235.9
p5408
L6111L
sV348.0
p5409
L1400L
sV610.2
p5410
L4650L
sV537.0
p5411
L288L
sV011.94
p5412
L7851L
sV864.14
p5413
L4972L
sV275.41
p5414
L403L
sV598.8
p5415
L2839L
sV821.21
p5416
L4021L
sV757.9
p5417
L6438L
sV840.4
p5418
L1036L
sV269.2
p5419
L2358L
sV462
p5420
L764L
sV711.97
p5421
L5843L
sV491.20
p5422
L220L
sV111.9
p5423
L1364L
sV003.9
p5424
L7866L
sV338.4
p5425
L149L
sV377.03
p5426
L7356L
sVV49.3
p5427
L4395L
sV198.5
p5428
L1777L
sV326
p5429
L5600L
sV519.9
p5430
L455L
sV906.4
p5431
L4068L
sV693.0
p5432
L579L
sV659.83
p5433
L4034L
sVV55.5
p5434
L2615L
sV608.87
p5435
L5974L
sVV53.32
p5436
L2186L
sV292.12
p5437
L3931L
sV335.8
p5438
L6581L
sV805.4
p5439
L1209L
sV671.21
p5440
L5285L
sV362.10
p5441
L3930L
sV372.00
p5442
L148L
sV438.0
p5443
L74L
sV756.0
p5444
L3016L
sV738.8
p5445
L785L
sV253.7
p5446
L3920L
sV296.12
p5447
L5497L
sV959.8
p5448
L2439L
sV944.00
p5449
L2654L
sV756.72
p5450
L7398L
sV780.64
p5451
L1525L
sV873.64
p5452
L6054L
sV041.86
p5453
L259L
sV199.1
p5454
L1044L
sV867.9
p5455
L8548L
sV669.82
p5456
L7669L
sV716.17
p5457
L3058L
sV331.0
p5458
L1914L
sV611.72
p5459
L837L
sVV61.41
p5460
L7613L
sV301.12
p5461
L8227L
sV747.0
p5462
L5612L
sV389.17
p5463
L2112L
sV705.1
p5464
L5202L
sV839.01
p5465
L7906L
sV660.61
p5466
L5311L
sV738.10
p5467
L5815L
sV615.9
p5468
L3009L
sV339.10
p5469
L1221L
sV854.01
p5470
L4809L
sVV42.7
p5471
L3577L
sV718.60
p5472
L6475L
sVE919.0
p5473
L6176L
sV327.27
p5474
L2154L
sV969.72
p5475
L1426L
sV712.10
p5476
L8363L
sV456.3
p5477
L3734L
sV035
p5478
L6444L
sV727.51
p5479
L1535L
sV653.13
p5480
L3202L
sV731.0
p5481
L4583L
sV142.0
p5482
L3893L
sV873.53
p5483
L8174L
sV998.30
p5484
L1516L
sV305.00
p5485
L45L
sV362.22
p5486
L6890L
sV923.03
p5487
L23L
sVE917.3
p5488
L3360L
sV359.22
p5489
L8532L
sV259.1
p5490
L3948L
sV429.79
p5491
L7842L
sV383.02
p5492
L1879L
sV902.89
p5493
L4066L
sV129
p5494
L6980L
sV054.19
p5495
L6250L
sV309.83
p5496
L4028L
sV367.21
p5497
L925L
sV741.03
p5498
L6490L
sV334.3
p5499
L20L
sVV14.9
p5500
L5125L
sV214.3
p5501
L407L
sV644.03
p5502
L3758L
sV715.21
p5503
L6319L
sV943.21
p5504
L6593L
sV595.82
p5505
L6718L
sVV12.53
p5506
L1595L
sV835.11
p5507
L7603L
sV654.12
p5508
L5241L
sV287.30
p5509
L1826L
sV365.74
p5510
L2944L
sV304.22
p5511
L6608L
sV568.82
p5512
L7290L
sVV85.52
p5513
L6406L
sV147.0
p5514
L5523L
sV935.2
p5515
L5463L
sV618.02
p5516
L6388L
sV813.08
p5517
L6796L
sV746.83
p5518
L8619L
sVV69.9
p5519
L3994L
sVV82.81
p5520
L367L
sV385.30
p5521
L3499L
sVV72.11
p5522
L7048L
sV722.92
p5523
L2758L
sV827.0
p5524
L1034L
sV945.09
p5525
L5377L
sVV26.51
p5526
L1468L
sV041.81
p5527
L6729L
sV453.87
p5528
L2185L
sV729.6
p5529
L1187L
sV924.00
p5530
L2364L
sV691.8
p5531
L967L
sV197.2
p5532
L8188L
sV788.3
p5533
L6855L
sV895.1
p5534
L5757L
sV646.83
p5535
L1229L
sV674.20
p5536
L7161L
sV172.3
p5537
L4742L
sVE848
p5538
L4438L
sV658.21
p5539
L5742L
sV873.63
p5540
L3732L
sV376.22
p5541
L8438L
sV577.2
p5542
L1661L
sV451.2
p5543
L2682L
sV655.43
p5544
L8163L
sV692.5
p5545
L4791L
sV305.1
p5546
L207L
sV902.54
p5547
L7428L
sVE957.9
p5548
L6187L
sV629.32
p5549
L7569L
sV854.09
p5550
L7891L
sV611.6
p5551
L1684L
sV718.47
p5552
L2972L
sV215.0
p5553
L505L
sVV13.4
p5554
L2456L
sVE931.0
p5555
L5379L
sV585.3
p5556
L537L
sVV02.9
p5557
L7192L
sV242.91
p5558
L5870L
sV975.0
p5559
L7128L
sV864.15
p5560
L8405L
sV294.11
p5561
L1163L
sV992.1
p5562
L4701L
sV345.9
p5563
L7020L
sV333.93
p5564
L7269L
sVV53.09
p5565
L2979L
sV246.8
p5566
L3209L
sV141.1
p5567
L8506L
sV852.30
p5568
L6324L
sV746.3
p5569
L7935L
sV803.36
p5570
L7599L
sV379.19
p5571
L6461L
sV860.4
p5572
L6677L
sV707.20
p5573
L2315L
sV744.49
p5574
L8643L
sV287.49
p5575
L440L
sVV17.6
p5576
L8204L
sV361.02
p5577
L5384L
sV114.5
p5578
L6488L
sV719.46
p5579
L70L
sV623.7
p5580
L3350L
sV682.1
p5581
L794L
sV844.9
p5582
L1222L
sV362.40
p5583
L5385L
sV362.32
p5584
L1962L
sV790.2
p5585
L6810L
sV969.6
p5586
L6089L
sV309.0
p5587
L1583L
sVE947.8
p5588
L3443L
sVV68.0
p5589
L8647L
sV715.92
p5590
L4232L
sV256.39
p5591
L5898L
sV892.2
p5592
L6175L
sV038.9
p5593
L166L
sV188.9
p5594
L2533L
sV863.53
p5595
L6965L
sV410.52
p5596
L3628L
sV745.60
p5597
L7797L
sV757.39
p5598
L325L
sV425.5
p5599
L3144L
sV994.6
p5600
L4621L
sVE929.3
p5601
L856L
sV295.94
p5602
L2162L
sV040.82
p5603
L6060L
sV595.9
p5604
L1823L
sV173.80
p5605
L7370L
sV281.1
p5606
L732L
sV593.70
p5607
L3022L
sV173.39
p5608
L4470L
sV744.3
p5609
L5967L
sV611.82
p5610
L5356L
sVV36.2
p5611
L7309L
sV426.9
p5612
L2589L
sV794.39
p5613
L1729L
sVV15.06
p5614
L1032L
sV624.4
p5615
L6003L
sVV50.9
p5616
L4569L
sV580.0
p5617
L7760L
sV290.40
p5618
L1718L
sV791.6
p5619
L1589L
sV824.6
p5620
L4735L
sV619.2
p5621
L7492L
sVV01.84
p5622
L5581L
sVE980.9
p5623
L4675L
sV531.90
p5624
L800L
sV646.43
p5625
L3197L
sV776.4
p5626
L8389L
sVE980.4
p5627
L806L
sV361.10
p5628
L5494L
sV148.1
p5629
L6642L
sV138
p5630
L5003L
sV648.92
p5631
L6468L
sV232.4
p5632
L4785L
sV310.0
p5633
L8113L
sV520.9
p5634
L5323L
sV414.11
p5635
L4343L
sV250.81
p5636
L2935L
sV851.23
p5637
L8292L
sV686.09
p5638
L7788L
sV171.40
p5639
L7890L
sV813.90
p5640
L8320L
sVV71.4
p5641
L572L
sV727.9
p5642
L4467L
sV567.23
p5643
L1943L
sVE897
p5644
L4398L
sV514
p5645
L821L
sVV13.7
p5646
L1407L
sV531.70
p5647
L799L
sV173.11
p5648
L3980L
sVE884.4
p5649
L3259L
sV327.32
p5650
L4447L
sV295.14
p5651
L8678L
sVV73.0
p5652
L8124L
sV533.70
p5653
L5340L
sV263.8
p5654
L1309L
sV765.04
p5655
L7705L
sVE963
p5656
L7079L
sV249.50
p5657
L6609L
sV512.89
p5658
L1068L
sV753.21
p5659
L3230L
sV385.01
p5660
L6143L
sV551.21
p5661
L7924L
sV996.03
p5662
L7242L
sV949.0
p5663
L2067L
sV802.5
p5664
L6673L
sV780.1
p5665
L1014L
sVV12.50
p5666
L2444L
sV525.41
p5667
L6559L
sVE924.0
p5668
L3935L
sV805.3
p5669
L7713L
sV744.03
p5670
L5475L
sVV13.3
p5671
L1335L
sV726.70
p5672
L86L
sV535.5
p5673
L5505L
sV821.23
p5674
L5052L
sV379.25
p5675
L3818L
sVV49.85
p5676
L5978L
sV491.1
p5677
L2628L
sV300.19
p5678
L4789L
sV437.9
p5679
L1972L
sV304.02
p5680
L5024L
sV282.60
p5681
L3107L
sV180.1
p5682
L6629L
sV388.2
p5683
L3921L
sV076.9
p5684
L6292L
sV729.9
p5685
L7582L
sV913.0
p5686
L1316L
sV748.9
p5687
L4102L
sV371.40
p5688
L6602L
sV823.42
p5689
L8404L
sV200.10
p5690
L6996L
sVV72.61
p5691
L6821L
sV705.0
p5692
L8457L
sV752.89
p5693
L7913L
sV292.11
p5694
L5327L
sV995.90
p5695
L164L
sV216.2
p5696
L7519L
sV996.51
p5697
L4764L
sV327.02
p5698
L2038L
sV289.84
p5699
L6850L
sV478.0
p5700
L1581L
sV304.00
p5701
L651L
sVV62.0
p5702
L3125L
sV746.84
p5703
L8573L
sV843.1
p5704
L7479L
sV648.13
p5705
L4497L
sVV42.84
p5706
L6477L
sVV85.25
p5707
L5829L
sV961.0
p5708
L6236L
sV302.89
p5709
L7661L
sVV62.6
p5710
L5561L
sV588.89
p5711
L3545L
sV314.9
p5712
L1817L
sV304.82
p5713
L5259L
sV366.04
p5714
L3277L
sVE861.3
p5715
L7699L
sV366.41
p5716
L4469L
sV936
p5717
L850L
sV525.8
p5718
L4387L
sV612.0
p5719
L1506L
sV810.02
p5720
L4062L
sV306.3
p5721
L5934L
sVV72.2
p5722
L31L
sV572.4
p5723
L1942L
sV374.31
p5724
L3918L
sV927.3
p5725
L2887L
sV962.3
p5726
L865L
sV735.0
p5727
L79L
sV453.2
p5728
L5995L
sV821.32
p5729
L6568L
sV972.8
p5730
L4651L
sV383.30
p5731
L6064L
sV212.6
p5732
L7779L
sV736.29
p5733
L5891L
sV312.9
p5734
L422L
sV271.8
p5735
L6439L
sV707.01
p5736
L3741L
sV365.72
p5737
L1656L
sVE945.8
p5738
L8441L
sV594.9
p5739
L2620L
sV996.70
p5740
L6422L
sV389.9
p5741
L869L
sV958.99
p5742
L8017L
sV553.8
p5743
L1662L
sV755.30
p5744
L5690L
sV282.44
p5745
L7822L
sV945.31
p5746
L8564L
sV756.81
p5747
L7476L
sV319.01
p5748
L2359L
sV232.9
p5749
L4548L
sV802.24
p5750
L4536L
sV516.3
p5751
L7545L
sV550.93
p5752
L7731L
sV323.82
p5753
L6004L
sV921.0
p5754
L1481L
sV429.2
p5755
L938L
sV031.2
p5756
L7877L
sV362.42
p5757
L7690L
sV375.53
p5758
L4738L
sV579.8
p5759
L3206L
sV649.11
p5760
L3762L
sV369.3
p5761
L4623L
sV784.92
p5762
L2574L
sV378.01
p5763
L5914L
sV944.30
p5764
L7825L
sVV17.3
p5765
L2523L
sV886.0
p5766
L744L
sV389.8
p5767
L3362L
sV333.81
p5768
L602L
sV209.01
p5769
L8097L
sV203.01
p5770
L6260L
sV841.0
p5771
L5841L
sV840.8
p5772
L872L
sV798.0
p5773
L5131L
sV626.7
p5774
L6534L
sV275.42
p5775
L364L
sV444.22
p5776
L1766L
sV784.60
p5777
L2331L
sVV54.09
p5778
L1383L
sV942.12
p5779
L7987L
sV649.51
p5780
L5649L
sV616.0
p5781
L1138L
sVE959
p5782
L1144L
sV780.65
p5783
L3118L
sV443.1
p5784
L7376L
sV865.02
p5785
L8571L
sV277.39
p5786
L7056L
sV038.2
p5787
L4500L
sV716.96
p5788
L34L
sV793.0
p5789
L1685L
sVV76.43
p5790
L4058L
sV722.83
p5791
L890L
sV718.41
p5792
L4909L
sV625.9
p5793
L254L
sV780.79
p5794
L177L
sV244.1
p5795
L2796L
sV362.74
p5796
L4113L
sV426.3
p5797
L1603L
sV200.31
p5798
L2220L
sV230.4
p5799
L8427L
sV569.5
p5800
L4627L
sVE816.7
p5801
L6934L
sV996.41
p5802
L1527L
sV658.41
p5803
L5312L
sV519.02
p5804
L3336L
sV211.9
p5805
L8205L
sV346.91
p5806
L2814L
sV718.56
p5807
L5181L
sV930.0
p5808
L1989L
sV839.9
p5809
L3627L
sV793.82
p5810
L1860L
sV362.9
p5811
L4756L
sV335.9
p5812
L7386L
sV410.02
p5813
L7536L
sV388.43
p5814
L5783L
sV896.1
p5815
L7292L
sVE895
p5816
L6484L
sV150.0
p5817
L4350L
sV337.09
p5818
L1202L
sV738.5
p5819
L4637L
sV729.90
p5820
L1343L
sV377.32
p5821
L6597L
sV313.3
p5822
L3447L
sV461.3
p5823
L2946L
sV997.69
p5824
L3250L
sV296.60
p5825
L1575L
sV284.12
p5826
L4842L
sV388.11
p5827
L8430L
sV304.73
p5828
L4922L
sV296.30
p5829
L940L
sV444.89
p5830
L6380L
sV282.46
p5831
L7606L
sV878.0
p5832
L6540L
sVV82.89
p5833
L1813L
sVV89.09
p5834
L6074L
sV873.23
p5835
L7724L
sV692.71
p5836
L2236L
sV335.21
p5837
L6660L
sVE901.9
p5838
L6066L
sVV84.02
p5839
L1498L
sV942.04
p5840
L8173L
sV130.2
p5841
L5493L
sV072.9
p5842
L7562L
sV414.12
p5843
L8356L
sV270.7
p5844
L4171L
sV374.56
p5845
L8661L
sV269.9
p5846
L1373L
sVV64.42
p5847
L7331L
sV726.19
p5848
L1256L
sV053.21
p5849
L6760L
sV300.13
p5850
L6978L
sV345.80
p5851
L25L
sV999.9
p5852
L1641L
sVV25.43
p5853
L4188L
sV567.0
p5854
L7830L
sV372.43
p5855
L7478L
sV339.12
p5856
L3849L
sV524.69
p5857
L2992L
sV786.4
p5858
L146L
sV512.8
p5859
L5723L
sV751.62
p5860
L5468L
sVE927
p5861
L3248L
sV207.10
p5862
L8072L
sV801.30
p5863
L8033L
sVV72.81
p5864
L294L
sV000.8
p5865
L7819L
sV719.89
p5866
L3536L
sV707.21
p5867
L150L
sV373.8
p5868
L7135L
sVE917.4
p5869
L997L
sV518.53
p5870
L6817L
sV524.00
p5871
L6182L
sV727.68
p5872
L695L
sV571.9
p5873
L1069L
sV299.90
p5874
L4126L
sVV76.0
p5875
L3543L
sV453.6
p5876
L896L
sV290.41
p5877
L5329L
sV782.9
p5878
L97L
sV007.1
p5879
L5220L
sVV43.69
p5880
L7409L
sV585.6
p5881
L520L
sV200.60
p5882
L7373L
sV905.4
p5883
L2719L
sV466.0
p5884
L361L
sV919.6
p5885
L962L
sV634.91
p5886
L2891L
sVV76.10
p5887
L966L
sV252.08
p5888
L5689L
sV209.29
p5889
L3321L
sV781.1
p5890
L4530L
sV295.30
p5891
L96L
sV996.72
p5892
L3881L
sVV10.00
p5893
L6639L
sV482.0
p5894
L2925L
sV275.3
p5895
L833L
sVV88.03
p5896
L6684L
sV367.53
p5897
L6058L
sVV01.9
p5898
L4448L
sV171.5
p5899
L7482L
sV644.00
p5900
L6355L
sV802.20
p5901
L4257L
sV878.8
p5902
L7879L
sV170.0
p5903
L7001L
sV202.81
p5904
L2207L
sV3439
p5905
L6837L
sV592.1
p5906
L460L
sV300.4
p5907
L300L
sV732.5
p5908
L6130L
sV368.12
p5909
L5623L
sV719.11
p5910
L7272L
sV919.0
p5911
L2375L
sV250.91
p5912
L888L
sV528.4
p5913
L6210L
sV681.11
p5914
L78L
sV789.44
p5915
L7741L
sV568.9
p5916
L8489L
sV577.1
p5917
L564L
sV593.3
p5918
L3326L
sV478.20
p5919
L3334L
sV648.63
p5920
L4040L
sV637.11
p5921
L4409L
sV959.6
p5922
L685L
sV747.20
p5923
L7260L
sV806.00
p5924
L7245L
sV745.61
p5925
L6860L
sV153.0
p5926
L3560L
sV795.39
p5927
L5686L
sVE864.3
p5928
L8003L
sV567.81
p5929
L4567L
sV923.3
p5930
L3976L
sV097.9
p5931
L3914L
sV996.89
p5932
L2575L
sV349.89
p5933
L2051L
sV618.81
p5934
L7243L
sV375.52
p5935
L4155L
sV259.8
p5936
L3884L
sVE941.9
p5937
L8315L
sV755.67
p5938
L1404L
sV521.89
p5939
L4078L
sV474.10
p5940
L2281L
sV850.12
p5941
L7349L
sVV88.21
p5942
L4444L
sVV76.2
p5943
L965L
sVV60.4
p5944
L3130L
sVV60.2
p5945
L915L
sV300.3
p5946
L2363L
sVV87.39
p5947
L3148L
sV755.63
p5948
L3882L
sV721.3
p5949
L252L
sV041.00
p5950
L1473L
sV831.00
p5951
L1078L
sV271.1
p5952
L6932L
sV634.92
p5953
L2490L
sV754.60
p5954
L4285L
sVE850.0
p5955
L2538L
sV123.4
p5956
L4830L
sV016.00
p5957
L6849L
sV370.03
p5958
L5629L
sV516.36
p5959
L8504L
sV047.9
p5960
L6009L
sVV67.1
p5961
L5354L
sV334.1
p5962
L3187L
sV530.85
p5963
L1022L
sV713.8
p5964
L6337L
sV663.31
p5965
L4046L
sV872.69
p5966
L8175L
sVV41.7
p5967
L7693L
sV204.10
p5968
L2467L
sV912.6
p5969
L7026L
sV783.5
p5970
L1039L
sV722.11
p5971
L2985L
sV648.93
p5972
L1228L
sV739.5
p5973
L3544L
sV560.39
p5974
L3822L
sV371.52
p5975
L7552L
sV493.00
p5976
L115L
sV738.0
p5977
L4121L
sV242.80
p5978
L5760L
sV543.9
p5979
L862L
sV530.89
p5980
L1693L
sV747.39
p5981
L4912L
sV995.82
p5982
L473L
sV493.01
p5983
L3898L
sV712.99
p5984
L8362L
sV305.80
p5985
L4391L
sV346.40
p5986
L6900L
sV410.90
p5987
L935L
sV654.43
p5988
L2047L
sV300.16
p5989
L6842L
sV634.90
p5990
L4194L
sV618.89
p5991
L3789L
sV708.9
p5992
L2010L
sV526.89
p5993
L7457L
sV755.55
p5994
L3169L
sV970.9
p5995
L7685L
sV709.4
p5996
L1111L
sV881.01
p5997
L4545L
sV839.41
p5998
L7576L
sV625.6
p5999
L717L
sVE930.8
p6000
L2552L
sV785.4
p6001
L412L
sV277.03
p6002
L3461L
sV215.8
p6003
L4250L
sV800.40
p6004
L3945L
sVV53.8
p6005
L6929L
sV286.9
p6006
L729L
sV250.23
p6007
L2022L
sV716.98
p6008
L1142L
sV405.01
p6009
L3080L
sV753.19
p6010
L562L
sV782.8
p6011
L1896L
sV952.08
p6012
L7995L
sV780.58
p6013
L3093L
sV620.3
p6014
L4808L
sV083.0
p6015
L2700L
sV880.03
p6016
L6052L
sV344.40
p6017
L4676L
sVE813.2
p6018
L6764L
sV733.15
p6019
L4656L
sV821.20
p6020
L4977L
sV733.13
p6021
L1067L
sVE902.9
p6022
L7615L
sV682.5
p6023
L696L
sV368.44
p6024
L5138L
sV747.49
p6025
L7475L
sV772.2
p6026
L5390L
sV344.2
p6027
L7115L
sV659.23
p6028
L7767L
sV296.33
p6029
L436L
sV245.0
p6030
L6725L
sV313.82
p6031
L8092L
sV729.72
p6032
L2971L
sV812.41
p6033
L6037L
sV338.29
p6034
L184L
sV710
p6035
L7923L
sV958.2
p6036
L5684L
sV383.1
p6037
L1643L
sV724.79
p6038
L1285L
sV737.8
p6039
L7214L
sV530.0
p6040
L3808L
sV8
p6041
L6185L
sV562.00
p6042
L2961L
sV712.30
p6043
L1753L
sV480.0
p6044
L4244L
sV727.62
p6045
L1988L
sV656.80
p6046
L5432L
sV996.01
p6047
L2226L
sV730.26
p6048
L1515L
sV368.15
p6049
L4283L
sV524.63
p6050
L3581L
sV238.75
p6051
L2473L
sV755.38
p6052
L6873L
sV611.0
p6053
L3349L
sV211.1
p6054
L1324L
sV327.44
p6055
L1810L
sV389.12
p6056
L3476L
sVE879.8
p6057
L633L
sV758.6
p6058
L7976L
sV251.9
p6059
L5552L
sV432.0
p6060
L2332L
sV036.2
p6061
L4930L
sV478.75
p6062
L3091L
sV726.12
p6063
L944L
sVV10.07
p6064
L5248L
sV441.00
p6065
L1773L
sV761.2
p6066
L8305L
sV209.30
p6067
L7847L
sV151.5
p6068
L7293L
sV721.0
p6069
L375L
sV130.9
p6070
L4026L
sV382.4
p6071
L3059L
sV987.8
p6072
L4059L
sV300.00
p6073
L120L
sV599.60
p6074
L530L
sV114.2
p6075
L4722L
sVV47.2
p6076
L8344L
sV364.11
p6077
L4215L
sV795.71
p6078
L2146L
sV350.9
p6079
L5890L
sV174.0
p6080
L7289L
sV652.11
p6081
L7882L
sV743.34
p6082
L6505L
sV458.9
p6083
L829L
sV378.05
p6084
L2744L
sV237.79
p6085
L3245L
sV755.53
p6086
L7637L
sV145.1
p6087
L4886L
sV787.99
p6088
L292L
sV377.00
p6089
L4518L
sV346.9
p6090
L7583L
sV344.32
p6091
L5578L
sV780.92
p6092
L5347L
sVL931
p6093
L3873L
sV346.70
p6094
L2484L
sVE813.9
p6095
L7635L
sV627.3
p6096
L1271L
sV453.77
p6097
L4939L
sV488.01
p6098
L7777L
sV215.7
p6099
L8372L
sV053.11
p6100
L6285L
sV295.11
p6101
L7423L
sVV56.31
p6102
L4740L
sV813.47
p6103
L5560L
sV744.9
p6104
L5871L
sVE888.0
p6105
L488L
sVV76.12
p6106
L377L
sV053.22
p6107
L6694L
sV755.31
p6108
L6983L
sV377.73
p6109
L8645L
sV719.50
p6110
L1555L
sV952.9
p6111
L4079L
sV173.21
p6112
L3982L
sV312.02
p6113
L6190L
sV291.3
p6114
L4986L
sV714.0
p6115
L360L
sV446.1
p6116
L7575L
sVV43.89
p6117
L3298L
sV604.99
p6118
L5774L
sV309.24
p6119
L472L
sV719.40
p6120
L286L
sV695.9
p6121
L413L
sV088.81
p6122
L8624L
sV427.81
p6123
L1540L
sV375.32
p6124
L4737L
sVV85.4
p6125
L8336L
sV453.83
p6126
L2785L
sV197.1
p6127
L8197L
sV695.19
p6128
L8243L
sV371.70
p6129
L5297L
sV286.2
p6130
L4952L
sV438.30
p6131
L7776L
sV850.5
p6132
L656L
sVV45.69
p6133
L1648L
sV783.7
p6134
L1311L
sV873.62
p6135
L8222L
sV600.01
p6136
L2827L
sV203.10
p6137
L6225L
sV868.04
p6138
L6599L
sV745.4
p6139
L5501L
sV569.3
p6140
L450L
sV844.2
p6141
L4458L
sV353.3
p6142
L7208L
sV642.33
p6143
L4329L
sV665.61
p6144
L8148L
sVE013.8
p6145
L7411L
sV526.2
p6146
L6262L
sVV53.02
p6147
L6377L
sVE929.0
p6148
L2679L
sV941.17
p6149
L7680L
sV295.34
p6150
L3594L
sV746.7
p6151
L4836L
sV465.9
p6152
L232L
sV413.0
p6153
L3694L
sV904.7
p6154
L2885L
sV736.6
p6155
L2559L
sV596.52
p6156
L4537L
sV349.9
p6157
L410L
sV941.30
p6158
L8447L
sV553.9
p6159
L250L
sV401.9
p6160
L0L
sV593.71
p6161
L3047L
sV389.7
p6162
L5845L
sV524.26
p6163
L5466L
sVV61.1
p6164
L8498L
sV765.14
p6165
L7662L
sV997.41
p6166
L6041L
sVV99.99
p6167
L6261L
sV727.83
p6168
L4639L
sV751.1
p6169
L1360L
sVE858.3
p6170
L5256L
sV364.81
p6171
L5873L
sV722.90
p6172
L1423L
sV442.82
p6173
L8472L
sV146.4
p6174
L7035L
sV907.0
p6175
L14L
sV754.31
p6176
L7560L
sV906.5
p6177
L4892L
sV433.91
p6178
L7200L
sV533.10
p6179
L8488L
sV701.0
p6180
L1260L
sV644.21
p6181
L4190L
sV532.21
p6182
L8664L
sV309.1
p6183
L4832L
sV370.9
p6184
L924L
sV718.27
p6185
L5492L
sV482.39
p6186
L6592L
sV622.2
p6187
L7617L
sV171.4
p6188
L5672L
sVV18.19
p6189
L1359L
sV943.11
p6190
L5142L
sV998.01
p6191
L5846L
sV851.43
p6192
L8293L
sV201.00
p6193
L7753L
sV508.2
p6194
L4337L
sV853.00
p6195
L3814L
sV823.00
p6196
L608L
sV305.73
p6197
L2914L
sV867.3
p6198
L8544L
sV444.0
p6199
L8346L
sV191.8
p6200
L3031L
sV707.09
p6201
L1568L
sV321.1
p6202
L8640L
sVE950.5
p6203
L990L
sVV42.0
p6204
L513L
sV038.10
p6205
L4103L
sV905.6
p6206
L5403L
sV941.18
p6207
L6428L
sV867.7
p6208
L8236L
sV536.2
p6209
L2151L
sV382.3
p6210
L1881L
sV995.52
p6211
L8179L
sV952.01
p6212
L4708L
sV887.0
p6213
L6510L
sV628.8
p6214
L8357L
sV579.0
p6215
L1166L
sV348.81
p6216
L4054L
sV597.89
p6217
L5001L
sVV82.1
p6218
L3846L
sV641.90
p6219
L4641L
sV824.4
p6220
L610L
sV300.14
p6221
L6027L
sV684
p6222
L2095L
sV830.0
p6223
L3582L
sV867.6
p6224
L5922L
sV212.0
p6225
L3568L
sV715.12
p6226
L3700L
sV205.0
p6227
L1797L
sV477.1
p6228
L968L
sV728.3
p6229
L4019L
sV054.72
p6230
L5251L
sV191.2
p6231
L4371L
sV155.1
p6232
L4107L
sV440.9
p6233
L1106L
sV151.2
p6234
L7294L
sV301.3
p6235
L421L
sV711.90
p6236
L4581L
sV263.2
p6237
L7187L
sVV79.1
p6238
L16L
sV296.01
p6239
L225L
sV714.30
p6240
L4261L
sV368.10
p6241
L4682L
sV151.3
p6242
L7497L
sV395.90
p6243
L5554L
sV374.87
p6244
L84L
sV404.90
p6245
L3241L
sV789.40
p6246
L4762L
sV844.1
p6247
L1889L
sVV53.91
p6248
L7853L
sV670.14
p6249
L4749L
sV041.83
p6250
L8062L
sV110.3
p6251
L1990L
sV090.0
p6252
L3637L
sV284.9
p6253
L1301L
sV524.79
p6254
L8575L
sV807.06
p6255
L2158L
sV442.9
p6256
L4344L
sV777.8
p6257
L8658L
sV372.73
p6258
L2131L
sV745.0
p6259
L7865L
sV268.2
p6260
L3773L
sV381.05
p6261
L8659L
sV794.01
p6262
L4613L
sV429.82
p6263
L8469L
sV788.32
p6264
L2561L
sV235.1
p6265
L5361L
sV288.63
p6266
L5085L
sV235.6
p6267
L4839L
sV996.49
p6268
L635L
sV902.9
p6269
L4728L
sV911.8
p6270
L5465L
sV789.00
p6271
L102L
sV645.10
p6272
L6117L
sV716.51
p6273
L6316L
sV896.2
p6274
L8491L
sV748.1
p6275
L2889L
sV756.56
p6276
L7466L
sV742.51
p6277
L7147L
sV521.49
p6278
L7323L
sV926.19
p6279
L8228L
sV789.34
p6280
L6495L
sV945.54
p6281
L7985L
sV716.88
p6282
L1957L
sVE816.0
p6283
L3848L
sV584.5
p6284
L514L
sV590.2
p6285
L5544L
sVV15.04
p6286
L3330L
sV682.3
p6287
L351L
sV295.23
p6288
L7864L
sV438.81
p6289
L3333L
sV530.11
p6290
L297L
sVV73.1
p6291
L7510L
sV648.91
p6292
L3760L
sV327.41
p6293
L7395L
sVV62.84
p6294
L180L
sVV15.84
p6295
L6473L
sV378.15
p6296
L2342L
sV881.20
p6297
L8294L
sVV71.7
p6298
L658L
sV562.1
p6299
L8149L
sV851.82
p6300
L7075L
sV250.13
p6301
L2027L
sV374.20
p6302
L6465L
sV443.0
p6303
L2671L
sVE824.9
p6304
L4917L
sV852.12
p6305
L6657L
sVE826.4
p6306
L4367L
sV360.40
p6307
L6426L
sV711.00
p6308
L1522L
sV594.2
p6309
L5927L
sV147.2
p6310
L7034L
sV726.72
p6311
L1897L
sV298.8
p6312
L1167L
sVE879.2
p6313
L2221L
sV722.10
p6314
L379L
sV277.30
p6315
L7456L
sVV15.09
p6316
L1140L
sV011.40
p6317
L6231L
sV251.2
p6318
L480L
sVE985.0
p6319
L5988L
sV371.48
p6320
L4703L
sV996.69
p6321
L2965L
sV813.80
p6322
L2416L
sV209.20
p6323
L3317L
sV070.20
p6324
L5167L
sV879.1
p6325
L5080L
sV746.02
p6326
L3607L
sV997.1
p6327
L4204L
sV993.9
p6328
L7186L
sVE931.7
p6329
L1647L
sV640.03
p6330
L1230L
sV915.0
p6331
L3291L
sV730.76
p6332
L6903L
sV918.1
p6333
L347L
sV362.77
p6334
L6894L
sV789.03
p6335
L312L
sV921.9
p6336
L1000L
sV197.6
p6337
L3320L
sV276.7
p6338
L1116L
sV746.1
p6339
L6883L
sV327.14
p6340
L6386L
sV808.8
p6341
L1722L
sV651.03
p6342
L2488L
sV784.42
p6343
L2367L
sVV55.4
p6344
L157L
sV403.11
p6345
L1967L
sV366.44
p6346
L6744L
sV806.14
p6347
L8252L
sV350.2
p6348
L2463L
sV693.1
p6349
L1731L
sV303.01
p6350
L663L
sV351.8
p6351
L4535L
sV821.00
p6352
L1612L
sV593.72
p6353
L4540L
sV389.04
p6354
L8552L
sV279.49
p6355
L1459L
sV077.1
p6356
L5894L
sV794.02
p6357
L2325L
sV300.89
p6358
L6353L
sVV68.89
p6359
L1416L
sV758.2
p6360
L3032L
sV250.02
p6361
L90L
sV425.4
p6362
L1542L
sV290.21
p6363
L1915L
sV542
p6364
L6913L
sVE858.4
p6365
L7250L
sV996.63
p6366
L4506L
sVV13.64
p6367
L4243L
sV305.41
p6368
L5057L
sV742.4
p6369
L3207L
sV474.12
p6370
L6701L
sVV12.40
p6371
L5943L
sV379.91
p6372
L373L
sVV06.5
p6373
L1226L
sV253.0
p6374
L6181L
sV291.5
p6375
L7629L
sV572.1
p6376
L4713L
sV571.42
p6377
L1393L
sV742.5
p6378
L8330L
sV608.9
p6379
L2234L
sV294.1
p6380
L8104L
sV024
p6381
L7989L
sV375.21
p6382
L3392L
sV300.7
p6383
L1847L
sV053.9
p6384
L859L
sV873.22
p6385
L8255L
sV566
p6386
L709L
sV318
p6387
L7304L
sV890.2
p6388
L8461L
sV596.83
p6389
L8109L
sV686.01
p6390
L2822L
sV596.9
p6391
L1392L
sV730.90
p6392
L6691L
sV701.2
p6393
L1274L
sV413.9
p6394
L1439L
sV759.9
p6395
L4143L
sVE942.4
p6396
L7759L
sV434.01
p6397
L3332L
sV945.04
p6398
L5005L
sV906.3
p6399
L4695L
sV278.2
p6400
L2264L
sVV82.71
p6401
L7287L
sV730.06
p6402
L4227L
sV813.43
p6403
L2794L
sV508.8
p6404
L6536L
sVE939.8
p6405
L5078L
sV379.92
p6406
L996L
sV583.4
p6407
L6806L
sVE887
p6408
L57L
sV363.63
p6409
L4720L
sV041.01
p6410
L4825L
sV531.10
p6411
L2767L
sVV71.6
p6412
L3055L
sV641.21
p6413
L5288L
sVV72.32
p6414
L3263L
sV289.51
p6415
L7088L
sV896.0
p6416
L5478L
sVE819.0
p6417
L5546L
sVV13.02
p6418
L2144L
sV845.10
p6419
L882L
sV579.4
p6420
L6617L
sV875.1
p6421
L4555L
sV728.5
p6422
L3425L
sV429.81
p6423
L7738L
sV173.60
p6424
L6542L
sV628.9
p6425
L3483L
sV794.19
p6426
L548L
sV197.5
p6427
L721L
sV530.7
p6428
L1538L
sV924.8
p6429
L1277L
sV661.90
p6430
L7863L
sV707.14
p6431
L187L
sV507.0
p6432
L178L
sV535.70
p6433
L8114L
sV754.53
p6434
L3468L
sV733.02
p6435
L1455L
sV847.3
p6436
L4802L
sV286.52
p6437
L7926L
sV053.13
p6438
L4279L
sV595.3
p6439
L5884L
sV808.0
p6440
L4662L
sV249.40
p6441
L2652L
sVE953.0
p6442
L4226L
sV296.20
p6443
L662L
sV799.81
p6444
L2423L
sV599.8
p6445
L7090L
sV656.83
p6446
L7108L
sV228.00
p6447
L687L
sVV70.3
p6448
L2527L
sV643.90
p6449
L7568L
sV516.9
p6450
L6173L
sV727.42
p6451
L2348L
sV386.03
p6452
L5968L
sV369.73
p6453
L3284L
sV758.32
p6454
L5693L
sV387.9
p6455
L3413L
sV562.13
p6456
L5651L
sV582.89
p6457
L5290L
sVV71.81
p6458
L6203L
sV296.22
p6459
L1020L
sVV65.19
p6460
L2687L
sV493.81
p6461
L2697L
sVE817.8
p6462
L6714L
sVV44.59
p6463
L4671L
sV365.20
p6464
L6500L
sV739.3
p6465
L1385L
sV146.2
p6466
L8531L
sV574.41
p6467
L7298L
sV862.39
p6468
L8518L
sV380.01
p6469
L5193L
sVV58.78
p6470
L1160L
sV358.9
p6471
L2099L
sV815.03
p6472
L4632L
sV560.89
p6473
L710L
sV851.00
p6474
L5637L
sVV13.62
p6475
L8426L
sV646.13
p6476
L4419L
sVV14.5
p6477
L908L
sV598.2
p6478
L6808L
sV741.00
p6479
L3638L
sV354.8
p6480
L2586L
sV666.22
p6481
L8166L
sV529.9
p6482
L2800L
sV432.9
p6483
L3210L
sV478.79
p6484
L4087L
sVV42.5
p6485
L2231L
sV455.0
p6486
L681L
sV718.88
p6487
L4855L
sV765.21
p6488
L3515L
sVV81.5
p6489
L3900L
sV435.3
p6490
L5496L
sV335.10
p6491
L4460L
sV284.11
p6492
L2430L
sV282.7
p6493
L5332L
sV250.2
p6494
L3601L
sV716.60
p6495
L6734L
sV304.33
p6496
L5186L
sV780.39
p6497
L3L
sV228.02
p6498
L3685L
sV600.0
p6499
L6275L
sVV27.0
p6500
L1237L
sVV89.05
p6501
L4947L
sVV10.88
p6502
L3723L
sV788.38
p6503
L2665L
sV792.1
p6504
L1030L
sV292.81
p6505
L4104L
sVE880.9
p6506
L2468L
sV969.05
p6507
L992L
sV250.20
p6508
L549L
sV153.7
p6509
L8028L
sV814.09
p6510
L3838L
sV873.20
p6511
L3465L
sV751.9
p6512
L8341L
sV707.12
p6513
L1449L
sV318.10
p6514
L7773L
sV366.12
p6515
L2451L
sV581.81
p6516
L2778L
sVV60.3
p6517
L2685L
sV801.01
p6518
L4659L
sV619.0
p6519
L704L
sV383.31
p6520
L5793L
sV491.22
p6521
L838L
sV131.09
p6522
L8153L
sV365.42
p6523
L4373L
sV394.0
p6524
L5084L
sV210.0
p6525
L6922L
sV717.49
p6526
L3944L
sV305.03
p6527
L975L
sV765.19
p6528
L8392L
sV719.62
p6529
L8364L
sV610.3
p6530
L4959L
sV733.3
p6531
L2551L
sV377.13
p6532
L8335L
sVV45.1
p6533
L8388L
sV250.80
p6534
L1113L
sV286.1
p6535
L7817L
sV752.61
p6536
L6496L
sV073.9
p6537
L7310L
sVE947.0
p6538
L4787L
sV731.1
p6539
L8133L
sV786.3
p6540
L7213L
sV917.6
p6541
L2485L
sV070.41
p6542
L2738L
sVE900.1
p6543
L7553L
sV376.33
p6544
L5789L
sV590.00
p6545
L5418L
sV327.39
p6546
L7360L
sV785.59
p6547
L3271L
sVE960.0
p6548
L594L
sVE813.0
p6549
L3840L
sV907.9
p6550
L6383L
sVV87.43
p6551
L4681L
sV780.54
p6552
L1342L
sV718.65
p6553
L7003L
sV249.70
p6554
L4291L
sV718.44
p6555
L417L
sV726.62
p6556
L7677L
sV309.9
p6557
L863L
sV601.9
p6558
L1151L
sVV71.09
p6559
L1891L
sV608.86
p6560
L3348L
sV741.91
p6561
L6961L
sVV54.9
p6562
L3534L
sVE955.0
p6563
L6862L
sV789.63
p6564
L3260L
sV386.54
p6565
L3647L
sV305.0
p6566
L6087L
sVV43.3
p6567
L4357L
sV275.03
p6568
L3684L
sVV50.1
p6569
L7526L
sVV80.09
p6570
L2902L
sVE858.2
p6571
L7313L
sV728.79
p6572
L4895L
sV295.42
p6573
L6417L
sV305.53
p6574
L224L
sV301.4
p6575
L6416L
sV569.9
p6576
L1354L
sV300.81
p6577
L3714L
sVV55.3
p6578
L332L
sV719.03
p6579
L2378L
sV783.6
p6580
L4532L
sV879.8
p6581
L271L
sV573.0
p6582
L2782L
sV564.3
p6583
L5540L
sV729.92
p6584
L5399L
sV748.61
p6585
L7937L
sV749.01
p6586
L7558L
sV674.80
p6587
L6281L
sV438.10
p6588
L75L
sV315.39
p6589
L3406L
sV715.95
p6590
L973L
sV730.38
p6591
L3262L
sV666.02
p6592
L1235L
sV413.1
p6593
L934L
sV802.6
p6594
L4661L
sV923.11
p6595
L1007L
sV295.22
p6596
L7874L
sV577.8
p6597
L2176L
sV209.03
p6598
L3312L
sV110.4
p6599
L2442L
sV860.2
p6600
L2159L
sV718.34
p6601
L8367L
sV733.21
p6602
L8045L
sVE906.3
p6603
L4768L
sV438.52
p6604
L5487L
sV241.0
p6605
L275L
sV374.54
p6606
L5038L
sVV24.0
p6607
L8135L
sVV81.6
p6608
L2622L
sVV50.42
p6609
L4807L
sV724.6
p6610
L349L
sV214.0
p6611
L3456L
sV414.06
p6612
L7151L
sV208.02
p6613
L5093L
sV646.23
p6614
L4416L
sV366.51
p6615
L6981L
sV863.43
p6616
L6967L
sV253.1
p6617
L5480L
sV995.2
p6618
L8542L
sV309.89
p6619
L6106L
sVE815.0
p6620
L6613L
sV464.4
p6621
L5381L
sV774.2
p6622
L6126L
sV209.12
p6623
L8276L
sV575.4
p6624
L7145L
sV194.5
p6625
L7239L
sVE945.1
p6626
L6369L
sV385.32
p6627
L7609L
sV280.1
p6628
L4005L
sV564.01
p6629
L3204L
sV238.9
p6630
L4967L
sV291.9
p6631
L2501L
sVV49.61
p6632
L6511L
sV372.13
p6633
L2997L
sV209.21
p6634
L7227L
sV527.0
p6635
L3054L
sV304.10
p6636
L2541L
sVE858.7
p6637
L8029L
sV521.03
p6638
L3928L
sV924.20
p6639
L2152L
sV386.31
p6640
L6237L
sV377.23
p6641
L8349L
sV304.61
p6642
L4081L
sV995.85
p6643
L6938L
sV996.52
p6644
L4030L
sV733.6
p6645
L1694L
sVV28.81
p6646
L4044L
sV532.00
p6647
L136L
sV715.90
p6648
L160L
sV714.4
p6649
L6790L
sV716.84
p6650
L4276L
sV271.9
p6651
L2981L
sV481
p6652
L1451L
sV343.4
p6653
L5105L
sV224.9
p6654
L6802L
sV443.82
p6655
L3978L
sV787.61
p6656
L4023L
sV795.01
p6657
L699L
sV850.9
p6658
L2683L
sV386.00
p6659
L5471L
sV359.9
p6660
L1347L
sV535.31
p6661
L1298L
sV750.15
p6662
L8535L
sV796.5
p6663
L3780L
sV183.0
p6664
L2977L
sVV26.21
p6665
L7736L
sV718.2
p6666
L2153L
sVV13.24
p6667
L7167L
sV640.83
p6668
L4793L
sV485
p6669
L3670L
sV308.9
p6670
L1691L
sV755.61
p6671
L4612L
sV676.60
p6672
L6264L
sV265.2
p6673
L6710L
sV384.9
p6674
L7848L
sVV13.89
p6675
L844L
sV718.01
p6676
L2138L
sV574.30
p6677
L1866L
sV707.04
p6678
L1910L
sV365.24
p6679
L6019L
sV531.61
p6680
L6164L
sVV46.13
p6681
L6892L
sV648.94
p6682
L2002L
sVV54.27
p6683
L5169L
sV250.53
p6684
L3709L
sV997.01
p6685
L3951L
sV340
p6686
L1314L
sV518.4
p6687
L2905L
sV555.2
p6688
L4326L
sV952.04
p6689
L6804L
sV117.7
p6690
L5681L
sVE947.9
p6691
L3366L
sV333.84
p6692
L8585L
sV912.9
p6693
L3747L
sV652.81
p6694
L8101L
sVV45.89
p6695
L554L
sV351.0
p6696
L372L
sV989.5
p6697
L2656L
sVV54.14
p6698
L1611L
sVE939.0
p6699
L5993L
sV232.2
p6700
L8014L
sV620.0
p6701
L2048L
sV282.68
p6702
L3111L
sV199.0
p6703
L6226L
sV250.71
p6704
L3708L
sV895.0
p6705
L2646L
sV232.5
p6706
L3003L
sVV45.78
p6707
L4323L
sV074.0
p6708
L3487L
sV692.2
p6709
L1252L
sV755.59
p6710
L6091L
sV201.70
p6711
L6289L
sVV54.23
p6712
L5512L
sV164.9
p6713
L1876L
sV200.48
p6714
L7426L
sVE850.6
p6715
L6839L
sV310.1
p6716
L466L
sV534.40
p6717
L8248L
sV730.88
p6718
L5728L
sV867.8
p6719
L7855L
sV619.1
p6720
L3225L
sV919.1
p6721
L6644L
sV972.9
p6722
L4989L
sV617.8
p6723
L5258L
sV866.00
p6724
L2932L
sV564.5
p6725
L843L
sV863.54
p6726
L8312L
sV250.60
p6727
L386L
sV839.20
p6728
L2984L
sV288.4
p6729
L7258L
sV787.21
p6730
L1748L
sV794.4
p6731
L1979L
sV825.0
p6732
L3449L
sV296.55
p6733
L2400L
sV788.99
p6734
L240L
sV621.6
p6735
L2428L
sV192.2
p6736
L2757L
sVV12.01
p6737
L2982L
sV453.3
p6738
L5994L
sV747.69
p6739
L5694L
sVE902.0
p6740
L5015L
sV186.9
p6741
L4265L
sV823.41
p6742
L7267L
sV861.01
p6743
L2237L
sV652.30
p6744
L8674L
sV646.10
p6745
L8268L
sVV62.83
p6746
L8456L
sV415.19
p6747
L713L
sV236.7
p6748
L6012L
sVE898.1
p6749
L7256L
sV568.89
p6750
L3062L
sV795.51
p6751
L1127L
sV343.1
p6752
L1414L
sV574.11
p6753
L5059L
sV335.1
p6754
L8126L
sV459.31
p6755
L2919L
sV054.79
p6756
L5779L
sV204.00
p6757
L2268L
sVV07.51
p6758
L6105L
sV375.30
p6759
L2611L
sV552.3
p6760
L3013L
sV562.03
p6761
L8507L
sVE822.7
p6762
L8570L
sV967.0
p6763
L6068L
sV353.2
p6764
L4800L
sV923.10
p6765
L970L
sV995.0
p6766
L1734L
sV325
p6767
L5219L
sV564.2
p6768
L3014L
sV656.13
p6769
L4201L
sVV76
p6770
L7548L
sV795.79
p6771
L895L
sV115.00
p6772
L6861L
sV641.93
p6773
L4327L
sV527.2
p6774
L2624L
sV272.1
p6775
L1038L
sV743.00
p6776
L6489L
sV295.95
p6777
L8603L
sV750.7
p6778
L4773L
sV145.0
p6779
L4878L
sVV65.5
p6780
L2509L
sV867.0
p6781
L2764L
sV970.1
p6782
L5382L
sV307.20
p6783
L4915L
sV716.20
p6784
L4901L
sV807.5
p6785
L7080L
sV346.81
p6786
L3151L
sV488.82
p6787
L1462L
sV648.33
p6788
L4038L
sV550.00
p6789
L6179L
sV654.51
p6790
L4946L
sV269.1
p6791
L3919L
sV384.00
p6792
L5047L
sV730.70
p6793
L5725L
sV512.1
p6794
L4175L
sV715.04
p6795
L3584L
sV255.5
p6796
L344L
sV457.0
p6797
L1505L
sV918.2
p6798
L3083L
sV512.2
p6799
L5025L
sVE922.4
p6800
L7946L
sV686.1
p6801
L3175L
sV038.44
p6802
L6442L
sVV12.51
p6803
L315L
sV041.85
p6804
L1532L
sV780.6
p6805
L5007L
sV876.1
p6806
L3509L
sV864.00
p6807
L6671L
sV799.90
p6808
L3729L
sV338
p6809
L2500L
sVV72.85
p6810
L1531L
sV715.32
p6811
L1009L
sV850.11
p6812
L3706L
sV427.61
p6813
L1822L
sV996.2
p6814
L3120L
sVV78.2
p6815
L6031L
sVV45.61
p6816
L2726L
sV996.81
p6817
L529L
sV756.59
p6818
L6698L
sV621.0
p6819
L3503L
sV410.10
p6820
L2910L
sVV87.41
p6821
L1490L
sV814.05
p6822
L5999L
sV370.04
p6823
L8449L
sV815.14
p6824
L4546L
sV935.1
p6825
L4654L
sVV09.1
p6826
L2267L
sV272.4
p6827
L92L
sV402.10
p6828
L1103L
sV735.1
p6829
L6815L
sV357.6
p6830
L2409L
sV943.23
p6831
L8470L
sVE825.9
p6832
L3511L
sVV87.09
p6833
L8323L
sVE927.4
p6834
L7440L
sV235.0
p6835
L6693L
sV240.0
p6836
L4669L
sVE880.1
p6837
L2414L
sV374.89
p6838
L3766L
sVV58.12
p6839
L2218L
sV791.4
p6840
L6753L
sV965.69
p6841
L2385L
sV852.10
p6842
L7932L
sV288.00
p6843
L2088L
sV903.1
p6844
L6509L
sV381.62
p6845
L6233L
sV743.9
p6846
L7154L
sV157.8
p6847
L2178L
sV799.21
p6848
L2486L
sV415.13
p6849
L3299L
sV818.0
p6850
L5724L
sV942.11
p6851
L8522L
sV243
p6852
L3380L
sV194.3
p6853
L7634L
sV803.31
p6854
L5638L
sV379.57
p6855
L8030L
sV659.43
p6856
L8172L
sV442.0
p6857
L4483L
sV519.11
p6858
L1923L
sV655.53
p6859
L2849L
sV708.8
p6860
L3457L
sV302.72
p6861
L2875L
sV715.30
p6862
L1882L
sV289.81
p6863
L770L
sV813.83
p6864
L3548L
sV805.00
p6865
L3922L
sVV90.9
p6866
L4935L
sVE934.2
p6867
L4084L
sV537.84
p6868
L6257L
sV097.0
p6869
L8034L
sVL946
p6870
L7818L
sV237.2
p6871
L6021L
sV866.11
p6872
L6916L
sVV49.71
p6873
L4364L
sV266.0
p6874
L6546L
sV204.01
p6875
L2263L
sV911.2
p6876
L7793L
sVV72.60
p6877
L65L
sV368.41
p6878
L4631L
sV727.67
p6879
L1893L
sV914.9
p6880
L5875L
sV634.72
p6881
L5630L
sV194.6
p6882
L5207L
sV290.42
p6883
L2516L
sV727.61
p6884
L1987L
sV649.53
p6885
L3751L
sV781
p6886
L6034L
sV362.18
p6887
L7413L
sV528.01
p6888
L3382L
sV944.24
p6889
L6045L
sV272.0
p6890
L383L
sV174.1
p6891
L1738L
sV420.90
p6892
L4476L
sV219.9
p6893
L8105L
sV281.8
p6894
L3642L
sV942.13
p6895
L8168L
sV716.41
p6896
L1970L
sV231.0
p6897
L5585L
sV362.21
p6898
L4936L
sV369.64
p6899
L7828L
sV717.85
p6900
L7480L
sV716.58
p6901
L6402L
sV136.8
p6902
L7060L
sV646.80
p6903
L2850L
sV359.6
p6904
L2825L
sV447.8
p6905
L2424L
sV711.95
p6906
L758L
sV180.8
p6907
L6246L
sV337.20
p6908
L1320L
sVV23.82
p6909
L4411L
sV742.53
p6910
L5358L
sV656.03
p6911
L6466L
sV451.0
p6912
L775L
sV790.99
p6913
L693L
sVV53.01
p6914
L3950L
sV141.6
p6915
L7458L
sV816.00
p6916
L3228L
sV131.9
p6917
L6084L
sV173.01
p6918
L4270L
sVE871
p6919
L8481L
sV782.1
p6920
L622L
sV848.1
p6921
L5954L
sV807.02
p6922
L1150L
sV666.30
p6923
L8630L
sV750.4
p6924
L5797L
sV580.81
p6925
L4462L
sV359.0
p6926
L4125L
sV838.09
p6927
L6811L
sV730.30
p6928
L8049L
sV894.0
p6929
L283L
sV338.0
p6930
L4584L
sV611.83
p6931
L1502L
sVV43.66
p6932
L5854L
sV999.52
p6933
L5679L
sV529.4
p6934
L7427L
sV493.92
p6935
L1037L
sV170.5
p6936
L8525L
sV299.91
p6937
L8662L
sV729.0
p6938
L949L
sV682.7
p6939
L181L
sV070.9
p6940
L4580L
sV156.9
p6941
L4108L
sV697.9
p6942
L7241L
sVE855.9
p6943
L8471L
sV943.13
p6944
L6984L
sV839.03
p6945
L4577L
sV764.96
p6946
L8306L
sV153.1
p6947
L6472L
sV173.9
p6948
L7800L
sV719.30
p6949
L6897L
sV669.51
p6950
L5567L
sV944.15
p6951
L6044L
sV765.27
p6952
L7486L
sV622.11
p6953
L5201L
sVV59.2
p6954
L3323L
sV641.13
p6955
L6774L
sV608.3
p6956
L5383L
sVV43.63
p6957
L6784L
sVV45.52
p6958
L5970L
sV414.00
p6959
L471L
sVV25.5
p6960
L3616L
sVV61.49
p6961
L4017L
sV780.31
p6962
L3790L
sV415.11
p6963
L1028L
sV718.93
p6964
L2336L
sV711.01
p6965
L2924L
sV292.89
p6966
L3431L
sV237.4
p6967
L2765L
sV789.32
p6968
L5170L
sV729.30
p6969
L4382L
sV512.84
p6970
L6717L
sV230.0
p6971
L4877L
sV333.5
p6972
L6217L
sV225.3
p6973
L2987L
sV952.16
p6974
L8314L
sV371.61
p6975
L6297L
sV765.01
p6976
L8206L
sV075
p6977
L5103L
sV321.2
p6978
L6011L
sV623.2
p6979
L4862L
sVE967.2
p6980
L7099L
sV388.31
p6981
L2674L
sV291.89
p6982
L3531L
sV820.00
p6983
L4115L
sV034.1
p6984
L7740L
sV287.31
p6985
L2244L
sV780.51
p6986
L2057L
sVE929.8
p6987
L2890L
sV371.57
p6988
L1602L
sV295.45
p6989
L2621L
sV345.3
p6990
L216L
sV813.41
p6991
L2795L
sV403.91
p6992
L522L
sV074.3
p6993
L2098L
sV722.81
p6994
L2136L
sV715.9
p6995
L7522L
sV536.8
p6996
L574L
sV801.16
p6997
L5632L
sV574.60
p6998
L3311L
sV583.89
p6999
L4165L
sV720.81
p7000
L2105L
sV943.20
p7001
L7396L
sV707.22
p7002
L1909L
sV533.71
p7003
L6362L
sV737.43
p7004
L1019L
sV952.2
p7005
L6310L
sV647.61
p7006
L2394L
sVV02.53
p7007
L8069L
sV229.0
p7008
L6431L
sV365.44
p7009
L5595L
sVV03.7
p7010
L4574L
sVE919.8
p7011
L8483L
sV995.50
p7012
L7146L
sVV62.81
p7013
L3448L
sV410.51
p7014
L4553L
sV719.49
p7015
L1275L
sV442.3
p7016
L6352L
sV461.9
p7017
L780L
sV438.20
p7018
L168L
sVE873.8
p7019
L8480L
sV426.2
p7020
L37L
sV289.52
p7021
L5166L
sV669.84
p7022
L6180L
sV789.0
p7023
L3295L
sVE870.9
p7024
L8420L
sV269.3
p7025
L350L
sV146
p7026
L7892L
sV553.01
p7027
L7464L
sV654.41
p7028
L4951L
sV341.8
p7029
L6169L
sV478.31
p7030
L3682L
sVE927.2
p7031
L5879L
sV796.1
p7032
L4761L
sV519.8
p7033
L439L
sVE968.2
p7034
L4009L
sV646.84
p7035
L2005L
sV618.1
p7036
L2011L
sV252.1
p7037
L4468L
sV685.1
p7038
L1247L
sV785.9
p7039
L1512L
sV211.7
p7040
L5532L
sV453.82
p7041
L2187L
sV633.01
p7042
L4689L
sV902.53
p7043
L7429L
sV364.02
p7044
L4369L
sVV85.23
p7045
L1325L
sV832.02
p7046
L6586L
sV356.9
p7047
L1071L
sVV19.8
p7048
L5574L
sV446.20
p7049
L6124L
sV315.4
p7050
L3025L
sV593.5
p7051
L3563L
sVV69.4
p7052
L5458L
sVV40.3
p7053
L8407L
sV525.3
p7054
L3559L
sV558.2
p7055
L6214L
sV369.71
p7056
L6786L
sV154.0
p7057
L720L
sV569.81
p7058
L2774L
sV456.1
p7059
L576L
sV642.21
p7060
L8675L
sV523.25
p7061
L7282L
sVE980.2
p7062
L6689L
sV114.9
p7063
L3455L
sV148.2
p7064
L7033L
sV562.01
p7065
L5557L
sV237.6
p7066
L7155L
sVE968.9
p7067
L1932L
sV724.1
p7068
L945L
sVV45.81
p7069
L1900L
sV038.3
p7070
L4230L
sV426.81
p7071
L4624L
sV832.04
p7072
L6587L
sV718.42
p7073
L1922L
sV730.87
p7074
L5042L
sV362.43
p7075
L7745L
sVV57.21
p7076
L1495L
sV654.20
p7077
L7839L
sV410.82
p7078
L5892L
sV273.1
p7079
L196L
sV744.29
p7080
L8332L
sV198.4
p7081
L5090L
sV851.20
p7082
L8351L
sV070.51
p7083
L583L
sV528.2
p7084
L1814L
sV996.66
p7085
L752L
sV410.71
p7086
L2174L
sV925.2
p7087
L7584L
sV453.73
p7088
L7150L
sV823.80
p7089
L607L
sV294.8
p7090
L433L
sV211.3
p7091
L406L
sV426.7
p7092
L3649L
sV624.02
p7093
L3687L
sV536.0
p7094
L8244L
sV802.28
p7095
L8208L
sV433.9
p7096
L2518L
sV825.29
p7097
L5506L
sV410.62
p7098
L8393L
sV363.30
p7099
L1484L
sV816.03
p7100
L7783L
sV647.23
p7101
L4324L
sV872.12
p7102
L5235L
sV788.4
p7103
L8641L
sV730.15
p7104
L4235L
sVE885.0
p7105
L7970L
sV190.7
p7106
L8399L
sV823.20
p7107
L4423L
sV821.01
p7108
L3190L
sV727.69
p7109
L3417L
sV096
p7110
L6985L
sV535.50
p7111
L577L
sV998.2
p7112
L2076L
sV276.4
p7113
L4451L
sV719.45
p7114
L253L
sV737.30
p7115
L1017L
sV299.00
p7116
L3651L
sVV10.05
p7117
L740L
sV751.3
p7118
L313L
sVV58.69
p7119
L99L
sV447.6
p7120
L897L
sV207.80
p7121
L8051L
sV996.31
p7122
L2616L
sVE928.3
p7123
L5267L
sV755.51
p7124
L7638L
sV618.6
p7125
L5147L
sVV83.81
p7126
L4592L
sV992.8
p7127
L8422L
sV005.9
p7128
L4772L
sV478.26
p7129
L5522L
sVE815.1
p7130
L5836L
sV721.90
p7131
L629L
sV313.83
p7132
L6857L
sV753.20
p7133
L7052L
sVE890.3
p7134
L7871L
sV598.9
p7135
L3329L
sVE968.1
p7136
L4816L
sV370.24
p7137
L4072L
sVV43.0
p7138
L5185L
sV346.93
p7139
L6156L
sV834.00
p7140
L5226L
sVV04.81
p7141
L2L
sV356.2
p7142
L6616L
sV361.30
p7143
L4628L
sV574.61
p7144
L7296L
sV567.1
p7145
L6238L
sV130.7
p7146
L7821L
sV232.0
p7147
L7459L
sV757.8
p7148
L8190L
sV250.41
p7149
L3338L
sV716.86
p7150
L5654L
sV256.31
p7151
L3716L
sVV12.3
p7152
L1745L
sV346.72
p7153
L5549L
sV680.7
p7154
L2638L
sV453.0
p7155
L5351L
sV755.66
p7156
L2309L
sV327.33
p7157
L5163L
sV372.44
p7158
L8492L
sV715.36
p7159
L116L
sV996.87
p7160
L3579L
sV012.82
p7161
L4871L
sV558.9
p7162
L289L
sV960.0
p7163
L7794L
sV728.87
p7164
L646L
sV680.3
p7165
L5400L
sV944.02
p7166
L7571L
sV729.2
p7167
L823L
sV891.0
p7168
L987L
sV736.42
p7169
L3154L
sVV87.01
p7170
L7005L
sV528.8
p7171
L5099L
sV802.25
p7172
L7709L
sV716.59
p7173
L219L
sV711.02
p7174
L7268L
sV716.95
p7175
L759L
sV232.1
p7176
L4853L
sVV10.02
p7177
L5520L
sV033.8
p7178
L7704L
sV379.26
p7179
L2940L
sV997.31
p7180
L6818L
sV278.00
p7181
L50L
sV908.4
p7182
L8425L
sV644.13
p7183
L4036L
sVE858.6
p7184
L4259L
sV457.1
p7185
L903L
sV793.4
p7186
L1178L
sVE000.8
p7187
L1479L
sV208.01
p7188
L5719L
sVE812.1
p7189
L3746L
sV283.11
p7190
L8143L
sV817.0
p7191
L3821L
sVV64.06
p7192
L1577L
sV996.02
p7193
L6141L
sVV42.9
p7194
L2840L
sV854.04
p7195
L68L
sVV15.05
p7196
L1218L
sV112.2
p7197
L875L
sV611.71
p7198
L399L
sV380.13
p7199
L5624L
sV198.7
p7200
L5930L
sV752.69
p7201
L8691L
sVE930.1
p7202
L7859L
sV851.81
p7203
L6078L
sV209.63
p7204
L7061L
sV787.29
p7205
L2585L
sV719.31
p7206
L6947L
sV656.81
p7207
L1234L
sV676.94
p7208
L8687L
sV966.4
p7209
L7094L
sV526.0
p7210
L7506L
sVV12.70
p7211
L341L
sV825.24
p7212
L4489L
sV757.32
p7213
L6907L
sV656.53
p7214
L4039L
sV524.30
p7215
L4465L
sV379.39
p7216
L7390L
sVE958.8
p7217
L4181L
sV518.52
p7218
L3969L
sV287.8
p7219
L3735L
sV922.2
p7220
L1280L
sVV58.62
p7221
L1921L
sV160.0
p7222
L7117L
sV205.90
p7223
L8107L
sV354.9
p7224
L1088L
sV940.9
p7225
L4137L
sV453.51
p7226
L900L
sV447.5
p7227
L8558L
sV371.89
p7228
L7307L
sV454.9
p7229
L2194L
sV759.1
p7230
L7930L
sV246.2
p7231
L3223L
sV376.00
p7232
L6795L
sV741.92
p7233
L5447L
sV853.06
p7234
L6132L
sV070.70
p7235
L193L
sV228.1
p7236
L4696L
sV965.7
p7237
L8482L
sV414.2
p7238
L2062L
sV057.9
p7239
L757L
sV345.1
p7240
L8448L
sV378.11
p7241
L3836L
sV822.0
p7242
L1135L
sV718.91
p7243
L2546L
sV170.7
p7244
L5065L
sV813.42
p7245
L2063L
sV595.81
p7246
L3702L
sV552.21
p7247
L3679L
sV304.21
p7248
L2382L
sV704.00
p7249
L1246L
sV189.2
p7250
L7929L
sV780.4
p7251
L306L
sV917.0
p7252
L202L
sV327.23
p7253
L358L
sV753.10
p7254
L1716L
sV181
p7255
L7010L
sVV61.09
p7256
L5083L
sV525.64
p7257
L4076L
sV852.01
p7258
L6658L
sV942.24
p7259
L3266L
sV586
p7260
L515L
sV365.51
p7261
L5975L
sV758.0
p7262
L132L
sVV72.40
p7263
L1466L
sVE967.5
p7264
L4924L
sV209.36
p7265
L5827L
sV647.81
p7266
L6752L
sVV23.0
p7267
L7232L
sVE878.9
p7268
L1519L
sV380.16
p7269
L3672L
sV295.10
p7270
L4705L
sV309.28
p7271
L495L
sVV58.11
p7272
L724L
sVV88.11
p7273
L5533L
sV728.88
p7274
L24L
sV516.2
p7275
L6831L
sV527.1
p7276
L2623L
sV472.1
p7277
L4843L
sV189.1
p7278
L3081L
sV295.71
p7279
L6623L
sV380.11
p7280
L4854L
sV842.13
p7281
L5068L
sV583.9
p7282
L2289L
sV488.11
p7283
L6997L
sV669.90
p7284
L8620L
sV205.80
p7285
L5498L
sV910.4
p7286
L2883L
sV628.0
p7287
L5306L
sV364.01
p7288
L3192L
sV293.82
p7289
L4179L
sV715.23
p7290
L8549L
sV377.43
p7291
L5230L
sV806.03
p7292
L8251L
sV198.82
p7293
L3319L
sV744.89
p7294
L3041L
sV705.89
p7295
L7658L
sVV06.3
p7296
L3521L
sV571.6
p7297
L3396L
sV716.85
p7298
L8690L
sV110.8
p7299
L2499L
sV425.7
p7300
L7262L
sV238.2
p7301
L626L
sV770.18
p7302
L7432L
sV304.70
p7303
L1145L
sV600.00
p7304
L432L
sV225.1
p7305
L6326L
sV753.6
p7306
L8567L
sV768.73
p7307
L6731L
sV618.03
p7308
L4858L
sV980.0
p7309
L805L
sV719.14
p7310
L6306L
sVV41.0
p7311
L5831L
sV213.8
p7312
L6006L
sV999.6
p7313
L8443L
sV437.4
p7314
L4723L
sV924.9
p7315
L285L
sV307.54
p7316
L5662L
sV529.0
p7317
L3459L
sVV76.47
p7318
L1861L
sV642.31
p7319
L5309L
sV237.71
p7320
L7447L
sV362.16
p7321
L5082L
sVV02.52
p7322
L7162L
sV322.9
p7323
L3379L
sV811.01
p7324
L6486L
sV808.2
p7325
L2958L
sV942.03
p7326
L3508L
sVV12.69
p7327
L755L
sV629.89
p7328
L571L
sV736.22
p7329
L3035L
sV242.9
p7330
L7763L
sV653.61
p7331
L7513L
sV283.0
p7332
L6163L
sV327.31
p7333
L2999L
sVV07.0
p7334
L4718L
sV599.5
p7335
L5149L
sV754.71
p7336
L3923L
sVE014.1
p7337
L7758L
sV941.23
p7338
L6296L
sV402.00
p7339
L4680L
sV909.0
p7340
L1004L
sV629.81
p7341
L6322L
sV701.4
p7342
L2597L
sV250.00
p7343
L80L
sV437.8
p7344
L3135L
sV099.53
p7345
L5127L
sVE965.9
p7346
L8515L
sV436
p7347
L937L
sV703.9
p7348
L392L
sVV23.89
p7349
L2389L
sV380.50
p7350
L7098L
sV865.00
p7351
L4980L
sVE858.5
p7352
L7157L
sV374.30
p7353
L83L
sV191.9
p7354
L3796L
sV171.3
p7355
L5060L
sV314.00
p7356
L1333L
sV872.79
p7357
L4554L
sV388.60
p7358
L4995L
sVE933.6
p7359
L7909L
sVV12.49
p7360
L1084L
sV719.81
p7361
L3504L
sV883.2
p7362
L3286L
sV277.87
p7363
L7036L
sV197.3
p7364
L6522L
sV787.22
p7365
L1765L
sV998.33
p7366
L3470L
sV112.84
p7367
L2645L
sV311
p7368
L229L
sV238.79
p7369
L3243L
sVV64.09
p7370
L4851L
sV371.41
p7371
L2210L
sV385.31
p7372
L6799L
sV824.0
p7373
L3134L
sV378.22
p7374
L8278L
sV360.30
p7375
L6865L
sV996.75
p7376
L3471L
sV796.4
p7377
L198L
sV070.59
p7378
L1446L
sVV15.82
p7379
L590L
sV996.80
p7380
L4484L
sV379.27
p7381
L5048L
sVV54.26
p7382
L5191L
sV361.01
p7383
L5825L
sV519.3
p7384
L6917L
sV756.83
p7385
L7068L
sVE986
p7386
L6750L
sV533.40
p7387
L3833L
sV839.04
p7388
L8247L
sV275.9
p7389
L5983L
sV641.11
p7390
L6775L
sV070.0
p7391
L2460L
sV410.00
p7392
L3826L
sV525.19
p7393
L5977L
sVV70.0
p7394
L268L
sV618.83
p7395
L8557L
sV863.20
p7396
L5517L
sV842.10
p7397
L2482L
sV112.81
p7398
L7565L
sV599.82
p7399
L6481L
sV134.9
p7400
L6879L
sV384.01
p7401
L6211L
sV716.91
p7402
L1255L
sV729.99
p7403
L1931L
sV525.25
p7404
L2606L
sVE942.1
p7405
L7067L
sVV71.2
p7406
L6318L
sV607.9
p7407
L2569L
sV883.1
p7408
L3282L
sV784.52
p7409
L7608L
sV909.2
p7410
L7531L
sV369.68
p7411
L7940L
sV250.0
p7412
L4899L
sV374.10
p7413
L3489L
sVV74.8
p7414
L5510L
sV461.8
p7415
L1628L
sV756.89
p7416
L6154L
sV721.6
p7417
L6604L
sV577.9
p7418
L1304L
sV704.41
p7419
L5246L
sVE884.0
p7420
L4120L
sV745.9
p7421
L2326L
sV635.92
p7422
L2489L
sV892.0
p7423
L186L
sV312.20
p7424
L5075L
sVV58.61
p7425
L317L
sV995.94
p7426
L6647L
sV825.20
p7427
L1609L
sV257.0
p7428
L5912L
sV292.9
p7429
L2913L
sV913.6
p7430
L7367L
sV707.9
p7431
L2271L
sV345.01
p7432
L814L
sV770.12
p7433
L8433L
sV453.41
p7434
L727L
sV141.4
p7435
L7739L
sV902.40
p7436
L7481L
sV781.92
p7437
L1954L
sV151.0
p7438
L4436L
sV942.22
p7439
L8350L
sV306.1
p7440
L1769L
sVE812.2
p7441
L5842L
sV410.80
p7442
L5115L
sVE821.0
p7443
L7082L
sV841.9
p7444
L1630L
sV620.1
p7445
L2352L
sVV76.11
p7446
L790L
sVE930.0
p7447
L6436L
sV195.2
p7448
L5066L
sVV64.05
p7449
L8594L
sV478.19
p7450
L852L
sV642.43
p7451
L4331L
sV560.32
p7452
L3068L
sV718.12
p7453
L6414L
sV305.93
p7454
L2387L
sV614.1
p7455
L2353L
sV240.9
p7456
L276L
sV158.9
p7457
L6308L
sV924.11
p7458
L33L
sV378.17
p7459
L8125L
sV213.3
p7460
L7311L
sVV23.2
p7461
L4200L
sV296.56
p7462
L477L
sV715.93
p7463
L2517L
sV852.22
p7464
L3929L
sVV17.5
p7465
L4998L
sV209.10
p7466
L6563L
sV378.42
p7467
L4145L
sVV46.3
p7468
L628L
sV720.0
p7469
L1698L
sV756.12
p7470
L327L
sV785.50
p7471
L1066L
sV711.96
p7472
L281L
sVE818.9
p7473
L4442L
sV555.0
p7474
L3971L
sV708.2
p7475
L5069L
sV315.32
p7476
L1417L
sV765.18
p7477
L5499L
sV716.92
p7478
L5011L
sV917.8
p7479
L4180L
sV716.14
p7480
L8381L
sV995.3
p7481
L694L
sV411.89
p7482
L2035L
sV307.51
p7483
L2996L
sV718.26
p7484
L6692L
sV296.63
p7485
L2600L
sV277.09
p7486
L2111L
sV230.7
p7487
L705L
sV157.9
p7488
L1986L
sV852.04
p7489
L6763L
sV897.3
p7490
L4229L
sV008.42
p7491
L4601L
sV739.9
p7492
L5396L
sV596.6
p7493
L6969L
sV176.1
p7494
L6208L
sVV43.60
p7495
L7072L
sV384.1
p7496
L3995L
sV746.89
p7497
L3385L
sV295.32
p7498
L2165L
sV279.19
p7499
L6434L
sV814.08
p7500
L4341L
sV707.0
p7501
L6875L
sV868.02
p7502
L6976L
sVV17.1
p7503
L3678L
sV800.21
p7504
L7602L
sV202.40
p7505
L5919L
sV396.9
p7506
L3879L
sVE852.8
p7507
L5022L
sV917.5
p7508
L6073L
sV379.34
p7509
L2937L
sV574.91
p7510
L7712L
sV803.30
p7511
L6633L
sV585.4
p7512
L526L
sV828.0
p7513
L6601L
sV814.03
p7514
L5294L
sV799.89
p7515
L3341L
sVV30.01
p7516
L5341L
sVV58.64
p7517
L1646L
sVV09.3
p7518
L7907L
sVV78.0
p7519
L2238L
sV722.51
p7520
L1047L
sV654.44
p7521
L7330L
sVV48.9
p7522
L8401L
sV998.9
p7523
L3066L
sV301.84
p7524
L7355L
sV685.0
p7525
L1250L
sV576.9
p7526
L1460L
sV528.6
p7527
L4876L
sV945.39
p7528
L5446L
sV614.9
p7529
L2677L
sV276.6
p7530
L4741L
sV356.8
p7531
L2070L
sV378.21
p7532
L3618L
sV389.02
p7533
L2598L
sV295.40
p7534
L3482L
sVV12.54
p7535
L1002L
sVE937.9
p7536
L5553L
sV365.00
p7537
L1153L
sV195.8
p7538
L3768L
sV967.3
p7539
L7556L
sV216.6
p7540
L3001L
sV675.23
p7541
L7527L
sV348.2
p7542
L3251L
sV529.6
p7543
L3269L
sV812.21
p7544
L4607L
sV718.46
p7545
L1911L
sV364.61
p7546
L8325L
sV772.5
p7547
L8059L
sV445.02
p7548
L7876L
sV339.41
p7549
L6561L
sV156.1
p7550
L4109L
sV235.3
p7551
L5168L
sV998.02
p7552
L3661L
sV975.2
p7553
L3558L
sV313.9
p7554
L4070L
sV916.6
p7555
L7509L
sV782.3
p7556
L235L
sV718.87
p7557
L1405L
sV996.59
p7558
L3588L
sV255.9
p7559
L2246L
sV995.27
p7560
L1829L
sV282.64
p7561
L8178L
sV249.81
p7562
L7368L
sV695.3
p7563
L797L
sVV43.61
p7564
L2921L
sV730.80
p7565
L4755L
sV446.21
p7566
L2283L
sV333.94
p7567
L546L
sV335.0
p7568
L4464L
sV367.31
p7569
L2196L
sV249.00
p7570
L1586L
sV704.9
p7571
L3415L
sV795.6
p7572
L7663L
sV410.11
p7573
L5333L
sVV54.22
p7574
L6712L
sV295.21
p7575
L4274L
sV376.9
p7576
L4501L
sVV55.8
p7577
L3865L
sV733.41
p7578
L8200L
sV939.2
p7579
L5822L
sV378.35
p7580
L4614L
sV947.0
p7581
L8025L
sV648.40
p7582
L4747L
sV188.2
p7583
L5799L
sV528.5
p7584
L1476L
sV913.5
p7585
L4334L
sV377.42
p7586
L3677L
sV362.12
p7587
L8353L
sVE016.1
p7588
L6274L
sV997.61
p7589
L7377L
sVV03.3
p7590
L8437L
sV039.1
p7591
L6949L
sV994.2
p7592
L5701L
sV277.9
p7593
L3361L
sV692.9
p7594
L670L
sV637.92
p7595
L4192L
sV077.3
p7596
L3915L
sV274.82
p7597
L4564L
sVV45.02
p7598
L4427L
sVE944.1
p7599
L6095L
sV719.86
p7600
L71L
sV388.00
p7601
L8046L
sV346.02
p7602
L4475L
sV529.8
p7603
L6359L
sV522.4
p7604
L2200L
sV642.53
p7605
L5283L
sV649.13
p7606
L2844L
sV998.81
p7607
L5768L
sV730.85
p7608
L7364L
sV374.51
p7609
L6877L
sV813.21
p7610
L6944L
sV494.0
p7611
L697L
sV716.00
p7612
L7343L
sV383.9
p7613
L3696L
sV871.4
p7614
L7598L
sV787.60
p7615
L879L
sV711.98
p7616
L7628L
sV978.9
p7617
L8328L
sV289.1
p7618
L5053L
sV743.53
p7619
L7284L
sV780.93
p7620
L469L
sV863.1
p7621
L4964L
sV821.33
p7622
L6564L
sV250.63
p7623
L2192L
sVV56.0
p7624
L2287L
sV371.05
p7625
L6662L
sV382.1
p7626
L3926L
sV665.31
p7627
L5910L
sV996.76
p7628
L2838L
sV054.74
p7629
L8577L
sV682.4
p7630
L1089L
sVV18.69
p7631
L3964L
sV556.4
p7632
L3990L
sV569.41
p7633
L2275L
sVE946.3
p7634
L5960L
sV259.2
p7635
L2803L
sV905.7
p7636
L4073L
sV458.29
p7637
L3045L
sV493.22
p7638
L1379L
sV992.6
p7639
L8041L
sV339.02
p7640
L5655L
sV683
p7641
L5858L
sV790.93
p7642
L2866L
sV054.3
p7643
L8275L
sV996.73
p7644
L1968L
sV360.21
p7645
L4207L
sV346.12
p7646
L5959L
sV974.4
p7647
L7158L
sV259.51
p7648
L6455L
sV276.3
p7649
L1594L
sV200.80
p7650
L6284L
sV815.04
p7651
L4154L
sV417.1
p7652
L8233L
sVV68.1
p7653
L199L
sV758.89
p7654
L4124L
sV782.0
p7655
L547L
sV284.09
p7656
L3399L
sV573.9
p7657
L1045L
sV964.9
p7658
L3738L
sVV10.90
p7659
L1863L
sV746.87
p7660
L5257L
sV656.51
p7661
L5605L
sV680.6
p7662
L2640L
sV733.97
p7663
L5197L
sV739.1
p7664
L1386L
sV870.8
p7665
L484L
sVV84.09
p7666
L1500L
sV654.23
p7667
L3199L
sV913.7
p7668
L8129L
sV342.02
p7669
L4080L
sV087.0
p7670
L8595L
sV710.3
p7671
L1447L
sV623.5
p7672
L1467L
sV716.09
p7673
L7199L
sV204.02
p7674
L2274L
sV727.04
p7675
L1632L
sV339.21
p7676
L4294L
sV738.2
p7677
L4433L
sV780.97
p7678
L27L
sV389.13
p7679
L7642L
sV780.60
p7680
L303L
sV726.69
p7681
L4512L
sV585.5
p7682
L2288L
sV715.38
p7683
L5828L
sV599.3
p7684
L4255L
sV362.15
p7685
L7252L
sV590.11
p7686
L555L
sVE879.9
p7687
L1518L
sV173.8
p7688
L8322L
sV039.9
p7689
L5570L
sV747.62
p7690
L6743L
sVE927.0
p7691
L886L
sV430
p7692
L2793L
sV654.21
p7693
L1233L
sV363.54
p7694
L7956L
sV441.7
p7695
L4729L
sV373.5
p7696
L8527L
sV173.6
p7697
L6768L
sV362.82
p7698
L3623L
sVE849.6
p7699
L3278L
sV295.12
p7700
L4164L
sVE920.3
p7701
L2973L
sV754.69
p7702
L4777L
sV631.0
p7703
L4407L
sV345.50
p7704
L2323L
sVV10.81
p7705
L5801L
sV537.2
p7706
L7059L
sV842.19
p7707
L5964L
sVV67.2
p7708
L2224L
sVE870.8
p7709
L4576L
sV016.10
p7710
L6852L
sVV89.04
p7711
L4796L
sV532.40
p7712
L2781L
sVV53.6
p7713
L2618L
sVV15.1
p7714
L5240L
sV327.11
p7715
L7947L
sV379.32
p7716
L2943L
sVV06.1
p7717
L1139L
sV730.0
p7718
L2519L
sV008.41
p7719
L8334L
sV374.00
p7720
L3147L
sV635.40
p7721
L7202L
sV956.3
p7722
L7544L
sV945.34
p7723
L5445L
sV342.91
p7724
L174L
sV969.2
p7725
L7358L
sV631.8
p7726
L2049L
sV599.84
p7727
L2255L
sV414.04
p7728
L1105L
sV719.91
p7729
L3674L
sV396.2
p7730
L3374L
sV649.40
p7731
L3946L
sV453.76
p7732
L4811L
sV681.9
p7733
L1225L
sV444.21
p7734
L2784L
sV431
p7735
L2329L
sV384.20
p7736
L2058L
sV651.01
p7737
L4049L
sVV10.09
p7738
L4007L
sV296.53
p7739
L2809L
sV805.2
p7740
L2313L
sV239.8
p7741
L3089L
sV304.81
p7742
L214L
sV715.14
p7743
L2556L
sV478.32
p7744
L3681L
sV379.54
p7745
L7604L
sV459.30
p7746
L819L
sV656.33
p7747
L6241L
sV642.04
p7748
L2004L
sV655.71
p7749
L5648L
sV718.90
p7750
L2156L
sVV54.25
p7751
L6668L
sV692.70
p7752
L5704L
sV455.6
p7753
L356L
sV301.89
p7754
L4067L
sV172.7
p7755
L7508L
sV424.2
p7756
L527L
sV722.2
p7757
L2491L
sV883.0
p7758
L1820L
sV114.0
p7759
L5121L
sV802.26
p7760
L7708L
sV669.91
p7761
L6529L
sV493.02
p7762
L105L
sV786.52
p7763
L954L
sV322.0
p7764
L7672L
sV250.22
p7765
L1124L
sV363.34
p7766
L1510L
sV211.5
p7767
L5265L
sV803.26
p7768
L6336L
sV781.6
p7769
L7722L
sVE938.3
p7770
L8225L
sV654.33
p7771
L4954L
sV274.11
p7772
L5491L
sV733.14
p7773
L735L
sV070.71
p7774
L1450L
sV768.70
p7775
L7300L
sV474.11
p7776
L3481L
sV143.1
p7777
L4884L
sV488.12
p7778
L2988L
sV281.2
p7779
L5081L
sV757.6
p7780
L6930L
sV659.71
p7781
L5308L
sV934.8
p7782
L5204L
sV873.39
p7783
L6460L
sV416.2
p7784
L4345L
sV716.57
p7785
L4559L
sV806.4
p7786
L3012L
sV346.92
p7787
L4443L
sV389.20
p7788
L1334L
sVV85.44
p7789
L249L
sVV10.20
p7790
L5293L
sV295.62
p7791
L4221L
sV526.4
p7792
L2933L
sV593.89
p7793
L457L
sVV56.2
p7794
L5806L
sV730.07
p7795
L1191L
sV365.52
p7796
L4372L
sV870.0
p7797
L490L
sV131.00
p7798
L7320L
sVV49.84
p7799
L179L
sV747.29
p7800
L8234L
sV173.12
p7801
L7611L
sV410.41
p7802
L3051L
sVE920.1
p7803
L6193L
sV758.39
p7804
L3648L
sV763.9
p7805
L6301L
sV195.1
p7806
L5337L
sV362.56
p7807
L1511L
sV994.3
p7808
L8452L
sV520.8
p7809
L8656L
sV296.32
p7810
L504L
sV863.42
p7811
L8545L
sV078.11
p7812
L2735L
sV716.50
p7813
L784L
sV410.21
p7814
L4814L
sV845.19
p7815
L4178L
sV942.52
p7816
L7643L
sV362.14
p7817
L3078L
sV440.29
p7818
L3591L
sV289.7
p7819
L6614L
sV726.63
p7820
L8063L
sV654.13
p7821
L4412L
sV312.89
p7822
L1564L
sV291.0
p7823
L657L
sV363.52
p7824
L7530L
sVV70.7
p7825
L2261L
sV140.5
p7826
L4880L
sV914.4
p7827
L5119L
sV728.10
p7828
L6312L
sV152.0
p7829
L8095L
sV659.81
p7830
L4992L
sV142.1
p7831
L7655L
sVV27.2
p7832
L4045L
sV376.11
p7833
L4514L
sV268.0
p7834
L6483L
sV302.81
p7835
L6553L
sV388.40
p7836
L2876L
sV723.2
p7837
L2426L
sV862.29
p7838
L3843L
sV270.3
p7839
L6118L
sV210.3
p7840
L7469L
sV364.05
p7841
L6866L
sV333.2
p7842
L3445L
sV373.12
p7843
L1811L
sVV74.9
p7844
L4300L
sV377.9
p7845
L6378L
sV558.3
p7846
L8146L
sV414.9
p7847
L582L
sV374.03
p7848
L8365L
sV365.05
p7849
L4321L
sV070.52
p7850
L7335L
sV094.0
p7851
L1669L
sVV59.02
p7852
L5094L
sV327.10
p7853
L3092L
sV715.00
p7854
L947L
sV198.0
p7855
L6650L
sV705.81
p7856
L1339L
sV786.02
p7857
L4566L
sV768.0
p7858
L6687L
sV881.12
p7859
L6685L
sV750.3
p7860
L4573L
sV290.8
p7861
L4287L
sV533.50
p7862
L4496L
sV173.52
p7863
L3620L
sV279.06
p7864
L5695L
sV372.64
p7865
L6820L
sV989.89
p7866
L4968L
sV346.80
p7867
L2338L
sV928.8
p7868
L8297L
sV372.05
p7869
L812L
sV949.2
p7870
L6664L
sV135
p7871
L1624L
sV863.84
p7872
L7009L
sV153.5
p7873
L7219L
sV522.9
p7874
L6393L
sV041.11
p7875
L1097L
sV434.10
p7876
L3704L
sV880.02
p7877
L8581L
sVV62.54
p7878
L8635L
sV216.4
p7879
L1634L
sV161.9
p7880
L5582L
sV252.9
p7881
L5524L
sV111.2
p7882
L5260L
sV304.51
p7883
L7958L
sV304.11
p7884
L2386L
sV945.15
p7885
L3485L
sVV65.41
p7886
L2565L
sV492.0
p7887
L731L
sV987.9
p7888
L4339L
sV591
p7889
L531L
sV711.19
p7890
L6579L
sV917.9
p7891
L5840L
sV873.43
p7892
L653L
sV596.51
p7893
L849L
sV296.51
p7894
L475L
sV451.82
p7895
L4480L
sV365.61
p7896
L5132L
sV456.6
p7897
L7028L
sV490
p7898
L586L
sV812.42
p7899
L4904L
sV584.8
p7900
L4311L
sV793.89
p7901
L141L
sV724.3
p7902
L854L
sV654.00
p7903
L7023L
sV873.50
p7904
L4315L
sVV49.87
p7905
L4225L
sV599.72
p7906
L245L
sV379.40
p7907
L2942L
sV607.3
p7908
L8177L
sVV13.8
p7909
L4063L
sV396.3
p7910
L4759L
sV680.8
p7911
L3436L
sVV64.02
p7912
L7905L
sV793.19
p7913
L62L
sV793.80
p7914
L388L
sV995.29
p7915
L2752L
sV801.06
p7916
L5636L
sV493.91
p7917
L3273L
sV215.4
p7918
L7179L
sV969.00
p7919
L4987L
sV239.3
p7920
L3767L
sV360.19
p7921
L6035L
sV463
p7922
L261L
sV257.8
p7923
L7406L
sV348.30
p7924
L1397L
sVV10.82
p7925
L2581L
sV297.8
p7926
L5470L
sV959.11
p7927
L828L
sV715.11
p7928
L867L
sV094.1
p7929
L3802L
sV722.93
p7930
L363L
sV174.8
p7931
L1489L
sV511.0
p7932
L362L
sVV60.29
p7933
L6480L
sV441.3
p7934
L7489L
sV786.06
p7935
L1600L
sV603.0
p7936
L5279L
sV395.1
p7937
L3246L
sV996.7
p7938
L5791L
sVV58.68
p7939
L3794L
sV275.49
p7940
L1752L
sV351.9
p7941
L2659L
sV389.01
p7942
L8042L
sV099.41
p7943
L8010L
sV237.3
p7944
L4743L
sV655.01
p7945
L7701L
sV996.54
p7946
L1631L
sV648.41
p7947
L1999L
sV788.37
p7948
L5699L
sV628.1
p7949
L8136L
sV616.3
p7950
L5140L
sV969.71
p7951
L8064L
sV009.3
p7952
L2947L
sV530.81
p7953
L43L
sV989.4
p7954
L5461L
sV282.61
p7955
L6283L
sV292.83
p7956
L8071L
sV521.21
p7957
L8203L
sV146.9
p7958
L3776L
sVE029.0
p7959
L7352L
sV473.3
p7960
L3724L
sV639.3
p7961
L3088L
sV293.81
p7962
L2127L
sV944.16
p7963
L4400L
sV522.5
p7964
L2012L
sV801.36
p7965
L5634L
sV150.5
p7966
L4348L
sV381.03
p7967
L7580L
sV279.2
p7968
L3378L
sV173.61
p7969
L6631L
sV714.89
p7970
L1680L
sV288.61
p7971
L197L
sV726.32
p7972
L1199L
sV253.3
p7973
L4744L
sV789.09
p7974
L241L
sV581.3
p7975
L8409L
sV610.8
p7976
L1268L
sV960.5
p7977
L4961L
sV751.5
p7978
L1321L
sV749.10
p7979
L7435L
sV599.71
p7980
L2722L
sV493.10
p7981
L1040L
sV447.71
p7982
L5592L
sV965.9
p7983
L5832L
sVV58.82
p7984
L444L
sV944.12
p7985
L7291L
sV659.90
p7986
L2392L
sVV76.41
p7987
L4456L
sV575.12
p7988
L4760L
sV730.09
p7989
L7182L
sV790.5
p7990
L561L
sVV03.0
p7991
L7829L
sV600.21
p7992
L2741L
sV152.1
p7993
L7651L
sV850.4
p7994
L7780L
sVV56.1
p7995
L4933L
sV371.55
p7996
L8533L
sV379.24
p7997
L617L
sV300.10
p7998
L3825L
sV941.39
p7999
L8446L
sV173.22
p8000
L4847L
sV455.1
p8001
L7168L
sV594.0
p8002
L5989L
sV296.36
p8003
L3096L
sV038.42
p8004
L551L
sV459
p8005
L7974L
sV306.4
p8006
L3912L
sV720.1
p8007
L1328L
sVV10.62
p8008
L1795L
sV531.60
p8009
L7014L
sV289.3
p8010
L2721L
sV191.4
p8011
L3803L
sV200.37
p8012
L6954L
sV203.80
p8013
L8359L
sVV21.30
p8014
L3517L
sV801.04
p8015
L8345L
sV300.82
p8016
L1692L
sV212.4
p8017
L7271L
sV213.2
p8018
L2986L
sV753.13
p8019
L4472L
sVV07.59
p8020
L4252L
sV202.02
p8021
L7625L
sVE866.9
p8022
L7620L
sV696.0
p8023
L5041L
sV799.55
p8024
L5956L
sV637.91
p8025
L4408L
sV369.25
p8026
L4873L
sVE919.4
p8027
L8494L
sV770.14
p8028
L5335L
sVV64.00
p8029
L3664L
sV296.89
p8030
L1576L
sV550.10
p8031
L5913L
sVV23.81
p8032
L4415L
sV438.40
p8033
L7400L
sV943.15
p8034
L3484L
sV427.89
p8035
L42L
sV288.50
p8036
L1395L
sV874.9
p8037
L5518L
sV510.9
p8038
L1064L
sV200.43
p8039
L6375L
sV525.10
p8040
L2916L
sV368.14
p8041
L5249L
sV733.5
p8042
L4965L
sV364.76
p8043
L7975L
sV438.7
p8044
L4394L
sVE878.4
p8045
L5054L
sV784.8
p8046
L7803L
sV601.2
p8047
L5711L
sV780.99
p8048
L366L
sV943.29
p8049
L7461L
sV718.37
p8050
L3416L
sV144.9
p8051
L1925L
sV233.4
p8052
L5158L
sV709.3
p8053
L5238L
sV710.8
p8054
L2179L
sV041.3
p8055
L337L
sV527.7
p8056
L449L
sVV42.83
p8057
L3294L
sV604.0
p8058
L7317L
sV336.1
p8059
L4586L
sV258.8
p8060
L1892L
sV799.24
p8061
L2412L
sV532.71
p8062
L7443L
sVV72.62
p8063
L1627L
sV196.0
p8064
L3774L
sVV45.00
p8065
L7415L
sV719.01
p8066
L2701L
sVE860.0
p8067
L2859L
sV948.90
p8068
L6681L
sV279.03
p8069
L6437L
sV361.06
p8070
L6042L
sV382.00
p8071
L1673L
sV525.63
p8072
L7375L
sV977.3
p8073
L1295L
sVV13.29
p8074
L1465L
sV444.01
p8075
L8369L
sV379.12
p8076
L7884L
sV864.02
p8077
L8258L
sVV09.80
p8078
L2257L
sV070.42
p8079
L7257L
sV995.23
p8080
L6649L
sV942.19
p8081
L5145L
sV526.9
p8082
L2608L
sV371.21
p8083
L7347L
sV774.4
p8084
L6127L
sVV10.46
p8085
L3488L
sV779.7
p8086
L5722L
sV250.40
p8087
L539L
sVE818.7
p8088
L7869L
sV788.9
p8089
L8614L
sV569.60
p8090
L330L
sV780.3
p8091
L3791L
sVV48.4
p8092
L4393L
sV690.12
p8093
L8380L
sV537.4
p8094
L4699L
sV903.5
p8095
L8584L
sV424.91
p8096
L4454L
sV344.00
p8097
L1549L
sVV06.6
p8098
L1164L
sV005.89
p8099
L7915L
sVV25.04
p8100
L2009L
sV600.91
p8101
L3077L
sV848.41
p8102
L4710L
sV871.9
p8103
L3561L
sV331.82
p8104
L3434L
sVV11.1
p8105
L3142L
sV765.10
p8106
L3513L
sV342.01
p8107
L3855L
sV473.0
p8108
L122L
sV571.3
p8109
L2427L
sVV21.33
p8110
L7049L
sV175.9
p8111
L6494L
sV815.02
p8112
L3858L
sVV77.0
p8113
L1269L
sV863.39
p8114
L6964L
sV133.0
p8115
L1251L
sV718.08
p8116
L3645L
sV289.59
p8117
L2897L
sV473.2
p8118
L1254L
sV611.79
p8119
L1888L
sV716.93
p8120
L2374L
sVV10.50
p8121
L6914L
sV362.84
p8122
L3943L
sV482.49
p8123
L7070L
sV112.9
p8124
L1026L
sV608.83
p8125
L2963L
sV996.53
p8126
L2475L
sV288.02
p8127
L1787L
sV807.12
p8128
L5410L
sV321.0
p8129
L7811L
sV426.54
p8130
L6986L
sV041.03
p8131
L1907L
sV791.5
p8132
L2304L
sV754.35
p8133
L6700L
sVV76.50
p8134
L3458L
sVV58.49
p8135
L1444L
sVV61.23
p8136
L2506L
sV307.46
p8137
L4534L
sV730.23
p8138
L6756L
sV946.0
p8139
L6485L
sVE932.8
p8140
L5398L
sV374.84
p8141
L5402L
sVE935.8
p8142
L7493L
sV793.7
p8143
L1883L
sV053.12
p8144
L4557L
sV870.2
p8145
L3963L
sVE852.9
p8146
L5950L
sV300.15
p8147
L5076L
sV276.5
p8148
L6537L
sV368.46
p8149
L3866L
sV287.5
p8150
L435L
sV188.0
p8151
L5614L
sV070.1
p8152
L4486L
sV438.50
p8153
L6823L
sV357.0
p8154
L4375L
sV314.01
p8155
L307L
sV789.43
p8156
L8529L
sV703.8
p8157
L394L
sV621.9
p8158
L340L
sVV23.3
p8159
L5971L
sVV21.32
p8160
L8235L
sV527.5
p8161
L6007L
sV785.1
p8162
L398L
sVV01.89
p8163
L4970L
sV353.8
p8164
L5998L
sVE860.9
p8165
L4674L
sVE917.7
p8166
L5271L
sV364.10
p8167
L1212L
sV477.8
p8168
L298L
sV332.1
p8169
L3892L
sV996.74
p8170
L1352L
sV737.9
p8171
L2319L
sV362.02
p8172
L2013L
sVV75.9
p8173
L5676L
sV927.21
p8174
L1214L
sV823.10
p8175
L6569L
sV916
p8176
L5212L
sV790.92
p8177
L765L
sV287.33
p8178
L7165L
sV945.24
p8179
L5926L
sV914.0
p8180
L998L
sV790.09
p8181
L942L
sV737.22
p8182
L7804L
sV643.03
p8183
L3903L
sV010.91
p8184
L3541L
sV963.0
p8185
L6046L
sVV14.6
p8186
L795L
sV648.43
p8187
L4041L
sV250.03
p8188
L1183L
sV715.37
p8189
L481L
sV880.13
p8190
L4389L
sV253.4
p8191
L3354L
sVV07.2
p8192
L3781L
sV704.3
p8193
L8429L
sV410.72
p8194
L3444L
sV236.5
p8195
L5861L
sV378.10
p8196
L1856L
sVV41.3
p8197
L5295L
sV440.1
p8198
L2195L
sVV42.82
p8199
L2269L
sV256.2
p8200
L3715L
sV378.86
p8201
L4492L
sV451.9
p8202
L776L
sV533.91
p8203
L7211L
sV314.1
p8204
L3952L
sV209.50
p8205
L3959L
sV719.55
p8206
L3267L
sV579.9
p8207
L3015L
sV791.0
p8208
L1963L
sV041.6
p8209
L1559L
sV307.23
p8210
L7326L
sV993.3
p8211
L6554L
sV682.9
p8212
L322L
sV795.09
p8213
L4921L
sVV84.89
p8214
L3565L
sV781.8
p8215
L6653L
sV712.16
p8216
L7664L
sV816.10
p8217
L7247L
sVE001.1
p8218
L6667L
sV009.0
p8219
L2403L
sV851.40
p8220
L7622L
sV602.8
p8221
L3164L
sV375.56
p8222
L4739L
sV435
p8223
L6783L
sV638.9
p8224
L7297L
sV336.0
p8225
L1960L
sV378.41
p8226
L4958L
sV271.2
p8227
L6521L
sVV58.8
p8228
L5556L
sV480.1
p8229
L3021L
sV364.51
p8230
L3044L
sV320.9
p8231
L3371L
sV285.3
p8232
L742L
sV790.6
p8233
L541L
sV646.63
p8234
L4035L
sV078.10
p8235
L669L
sV710.4
p8236
L1442L
sV276.8
p8237
L21L
sV646.90
p8238
L4795L
sV161.1
p8239
L5584L
sV288.04
p8240
L1939L
sV996.86
p8241
L3297L
sVE936.3
p8242
L3967L
sV737.34
p8243
L5108L
sV599.0
p8244
L134L
sV350.1
p8245
L2957L
sV141.8
p8246
L8505L
sV795.89
p8247
L733L
sV705.83
p8248
L2625L
sV719.21
p8249
L6227L
sV717.84
p8250
L5917L
sVV44.52
p8251
L1348L
sV405.09
p8252
L5895L
sV283.19
p8253
L8439L
sV627.8
p8254
L2804L
sVE882
p8255
L4610L
sV780.2
p8256
L51L
sVV04.89
p8257
L565L
sV345.41
p8258
L1751L
sV739.6
p8259
L4504L
sVV58.43
p8260
L2495L
sV985.3
p8261
L8241L
sV692.72
p8262
L3533L
sV854.15
p8263
L5817L
sV746.09
p8264
L6140L
sV698.9
p8265
L621L
sV711.57
p8266
L6713L
sV839.00
p8267
L7348L
sVV07.9
p8268
L3181L
sVE900.0
p8269
L7555L
sV652.21
p8270
L4955L
sV998.32
p8271
L747L
sV955.2
p8272
L2524L
sV239.7
p8273
L3852L
sV438.22
p8274
L1035L
sV733.20
p8275
L3954L
sV656.63
p8276
L3755L
sVE905.3
p8277
L4011L
sV270.2
p8278
L5056L
sV670.00
p8279
L5746L
sV803.20
p8280
L7601L
sV648.01
p8281
L6133L
sV278.02
p8282
L231L
sV415.12
p8283
L4453L
sV414.01
p8284
L479L
sV719.53
p8285
L4485L
sV381.3
p8286
L4381L
sVV45.51
p8287
L3264L
sV823.02
p8288
L2713L
sV739.2
p8289
L1387L
sV078.12
p8290
L835L
sV719.04
p8291
L1918L
sV054.0
p8292
L2872L
sV629.0
p8293
L7439L
sV305.71
p8294
L2909L
sV535.60
p8295
L680L
sV648.61
p8296
L6242L
sV789.2
p8297
L692L
sV291.82
p8298
L6625L
sV359.89
p8299
L1445L
sV453.72
p8300
L4957L
sV482.30
p8301
L3640L
sV395.2
p8302
L8006L
sV440.8
p8303
L1904L
sV355.2
p8304
L7012L
sV521.30
p8305
L4828L
sV349.39
p8306
L6588L
sV363.51
p8307
L2020L
sV365.15
p8308
L6781L
sV891.2
p8309
L2718L
sV356.4
p8310
L2632L
sV145.9
p8311
L6634L
sV388.61
p8312
L6766L
sV794.15
p8313
L4481L
sV806.21
p8314
L8229L
sV525.50
p8315
L4077L
sVE879.6
p8316
L4673L
sV730.00
p8317
L1558L
sVV64.43
p8318
L4910L
sVV55.0
p8319
L1599L
sV756.10
p8320
L1051L
sV997.99
p8321
L5023L
sV384.21
p8322
L1644L
sV733.16
p8323
L5195L
sV778.4
p8324
L5346L
sV712.33
p8325
L5504L
sV719.10
p8326
L6610L
sV072.2
p8327
L7518L
sV924.10
p8328
L1287L
sV369.18
p8329
L6951L
sV482.42
p8330
L4093L
sV200.42
p8331
L6374L
sV593.0
p8332
L5558L
sV362.53
p8333
L2880L
sV600.20
p8334
L2132L
sV104.9
p8335
L6122L
sV518.6
p8336
L5952L
sV945.26
p8337
L4881L
sV873.54
p8338
L4556L
sV290.3
p8339
L2128L
sV288.09
p8340
L2826L
sVV18.3
p8341
L2976L
sVE819.2
p8342
L5718L
sV521.09
p8343
L3237L
sV841.2
p8344
L6630L
sV398.90
p8345
L4648L
sV117.3
p8346
L3235L
sV351.1
p8347
L6924L
sV733.44
p8348
L8253L
sV719.7
p8349
L645L
sV625.0
p8350
L2528L
sV825.23
p8351
L3529L
sV715.10
p8352
L2869L
sV381.60
p8353
L3710L
sV998.7
p8354
L4305L
sV366.52
p8355
L1836L
sV701.1
p8356
L604L
sVV67.51
p8357
L343L
sV403.90
p8358
L556L
sV433.00
p8359
L6247L
sV736.76
p8360
L3409L
sV718.80
p8361
L5203L
sV648.21
p8362
L4048L
sV746.00
p8363
L8604L
sV719.95
p8364
L3740L
sV575.3
p8365
L4209L
sV915.9
p8366
L4211L
sV354.2
p8367
L2104L
sV582.1
p8368
L4767L
sV583.0
p8369
L5165L
sVV58.32
p8370
L493L
sV782.7
p8371
L783L
sV362.83
p8372
L98L
sV755.65
p8373
L5682L
sVE939.4
p8374
L5670L
sVV07.1
p8375
L1651L
sV155.0
p8376
L1179L
sV789.47
p8377
L6524L
sV453.81
p8378
L1935L
sV319.00
p8379
L5334L
sV492.8
p8380
L492L
sVV02.62
p8381
L1171L
sV655.70
p8382
L6075L
sV391.1
p8383
L7577L
sV132.0
p8384
L4096L
sV259.0
p8385
L3108L
sV518.5
p8386
L4973L
sV600.90
p8387
L3435L
sV666.04
p8388
L5743L
sVV61.5
p8389
L4690L
sV380.9
p8390
L3412L
sV312.03
p8391
L2710L
sV189.9
p8392
L6516L
sV433.11
p8393
L3331L
sV851.49
p8394
L8540L
sVE906.4
p8395
L270L
sVE876.8
p8396
L2717L
sV648.81
p8397
L4191L
sV996.60
p8398
L1523L
sV378.81
p8399
L6092L
sV991.6
p8400
L1003L
sV789.65
p8401
L5607L
sV694.9
p8402
L4129L
sV930.1
p8403
L3084L
sV333.92
p8404
L3889L
sV656.11
p8405
L4187L
sV584.7
p8406
L5486L
sV806.25
p8407
L7719L
sVV65.43
p8408
L4693L
sV727.43
p8409
L2692L
sV366.30
p8410
L1381L
sV887.4
p8411
L6350L
sV279.01
p8412
L7938L
sV521.11
p8413
L8657L
sV324.9
p8414
L2759L
sV204.20
p8415
L7045L
sVE967.4
p8416
L6412L
sVV10.72
p8417
L6606L
sV812.00
p8418
L591L
sV671.23
p8419
L5281L
sV384.81
p8420
L8264L
sV290.10
p8421
L599L
sV362.36
p8422
L507L
sV675.13
p8423
L6277L
sV642.94
p8424
L2856L
sV346.73
p8425
L4295L
sV303.90
p8426
L63L
sV478.25
p8427
L3722L
sV259.9
p8428
L818L
sV294.21
p8429
L420L
sV655.91
p8430
L7236L
sV149.0
p8431
L4887L
sV697.0
p8432
L4136L
sV112.83
p8433
L4519L
sV277.85
p8434
L4670L
sV032.89
p8435
L6061L
sV162.5
p8436
L816L
sV361.32
p8437
L5386L
sV913.3
p8438
L6748L
sVE922.9
p8439
L6670L
sV493.20
p8440
L855L
sV912.2
p8441
L3596L
sV973.0
p8442
L6814L
sV692.89
p8443
L2998L
sVV30.00
p8444
L5342L
sV201.96
p8445
L7756L
sV992.0
p8446
L5652L
sV331.4
p8447
L1412L
sV370.06
p8448
L6878L
sV331.89
p8449
L3252L
sV695.4
p8450
L1867L
sVV65.2
p8451
L1472L
sV745.10
p8452
L7361L
sV508.0
p8453
L5479L
sV717.43
p8454
L4033L
sV447.2
p8455
L6033L
sV239.89
p8456
L1949L
sV200.14
p8457
L6544L
sV198.81
p8458
L5116L
sVE915
p8459
L2612L
sV207.00
p8460
L7883L
sV295.82
p8461
L1903L
sV191.7
p8462
L7846L
sV910.7
p8463
L4449L
sV900.9
p8464
L7445L
sV535.11
p8465
L1058L
sV915.1
p8466
L3512L
sV760.79
p8467
L7204L
sV353.6
p8468
L1196L
sV719.37
p8469
L6648L
sV985.8
p8470
L7139L
sV996.43
p8471
L7421L
sV255.2
p8472
L8487L
sV291.81
p8473
L652L
sV192.1
p8474
L4505L
sV476.0
p8475
L3742L
sVV70.8
p8476
L3906L
sVV54.16
p8477
L1136L
sV881.10
p8478
L1086L
sVV45.79
p8479
L309L
sV661.21
p8480
L1998L
sV173.00
p8481
L6008L
sV349.81
p8482
L6399L
sV780.33
p8483
L12L
sV123.3
p8484
L8089L
sVV66.0
p8485
L5938L
sVV03.9
p8486
L8018L
sV718.58
p8487
L1703L
sV752.11
p8488
L5214L
sV131.01
p8489
L5126L
sV447.70
p8490
L4015L
sV590.9
p8491
L3157L
sVV76.44
p8492
L205L
sVV45.59
p8493
L6835L
sV593.6
p8494
L6056L
sV867.2
p8495
L5937L
sV922.8
p8496
L2896L
sV099.54
p8497
L4325L
sV448.1
p8498
L3718L
sVV06.8
p8499
L1537L
sV969.03
p8500
L5439L
sVV45.4
p8501
L1048L
sVV60.89
p8502
L4428L
sV303.91
p8503
L487L
sVV42.81
p8504
L1794L
sVV14.7
p8505
L4099L
sV995.91
p8506
L170L
sV293.1
p8507
L1299L
sVE950.0
p8508
L2894L
sV792.4
p8509
L7302L
sV389.15
p8510
L1845L
sV712.37
p8511
L2954L
sV346.71
p8512
L2354L
sV335.11
p8513
L4463L
sVV62.29
p8514
L5457L
sV728.19
p8515
L8638L
sVV78.1
p8516
L2093L
sV154.2
p8517
L4870L
sV826.1
p8518
L3595L
sVE818.1
p8519
L4122L
sV599.1
p8520
L5302L
sV754.82
p8521
L7934L
sVV61.11
p8522
L5809L
sV792.3
p8523
L8669L
sV360.42
p8524
L5331L
sV928.20
p8525
L3804L
sV341.9
p8526
L4945L
sV441.9
p8527
L4647L
sV370.62
p8528
L3551L
sV727.41
p8529
L2691L
sV309.29
p8530
L5276L
sVE878.2
p8531
L2663L
sV716.30
p8532
L5387L
sVE942.2
p8533
L6723L
sV923.21
p8534
L2699L
sV252.02
p8535
L4267L
sV872.71
p8536
L6345L
sV564.09
p8537
L316L
sV362.65
p8538
L4565L
sV215.6
p8539
L6841L
sV795.15
p8540
L6463L
sV379.00
p8541
L6462L
sV869.1
p8542
L5717L
sV495.8
p8543
L820L
sV737.20
p8544
L808L
sV738.9
p8545
L7172L
sVV54.19
p8546
L618L
sVV13.67
p8547
L6476L
sV521.10
p8548
L6070L
sV995.80
p8549
L2898L
sV578.0
p8550
L301L
sV384.09
p8551
L5883L
sV810.01
p8552
L6533L
sV523.6
p8553
L3183L
sV214.1
p8554
L1871L
sV996.09
p8555
L2225L
sV983.9
p8556
L4769L
sV040.42
p8557
L7025L
sV368.9
p8558
L972L
sVV62.85
p8559
L2915L
sV765.00
p8560
L5314L
sV788.62
p8561
L3875L
sV575.6
p8562
L4184L
sVV46.0
p8563
L8127L
sV086.1
p8564
L7888L
sV385.83
p8565
L3034L
sV173.20
p8566
L3981L
sV928.11
p8567
L4441L
sV433.20
p8568
L1828L
sV038.12
p8569
L1095L
sVE950.3
p8570
L980L
sV366.17
p8571
L2737L
sVV44.2
p8572
L328L
sV323.9
p8573
L2204L
sV698.3
p8574
L3454L
sV576.1
p8575
L1174L
sVV29.0
p8576
L5348L
sV728.13
p8577
L4983L
sV784.69
p8578
L3117L
sV235.8
p8579
L4217L
sV456.5
p8580
L7193L
sV245.8
p8581
L3745L
sVV49.65
p8582
L5771L
sV357.7
p8583
L5404L
sV799.29
p8584
L4595L
sVE826.9
p8585
L7338L
sV374.34
p8586
L2725L
sV719.63
p8587
L6551L
sV224.0
p8588
L6405L
sV728.85
p8589
L415L
sVV25.02
p8590
L2496L
sV528.1
p8591
L8121L
sV991.3
p8592
L6825L
sV389.05
p8593
L3216L
sVV53.39
p8594
L4396L
sV278.4
p8595
L2073L
sV918.9
p8596
L1279L
sVV58.7
p8597
L6503L
sV230.3
p8598
L7334L
sV494.1
p8599
L2706L
sV800.00
p8600
L6371L
sV574.50
p8601
L1453L
sV845.01
p8602
L4845L
sV718.97
p8603
L5606L
sV533.30
p8604
L2461L
sV244.0
p8605
L2340L
sVE858.8
p8606
L4944L
sV588.9
p8607
L2016L
sV780.32
p8608
L4617L
sV596.82
p8609
L6147L
sV345.71
p8610
L5905L
sV728.2
p8611
L1604L
sV921.1
p8612
L4L
sV996.42
p8613
L4630L
sV716.46
p8614
L5366L
sV659.73
p8615
L3759L
sV352.6
p8616
L7543L
sV718.45
p8617
L1704L
sV250.82
p8618
L1117L
sV789.07
p8619
L128L
sV359.79
p8620
L1443L
sV304.43
p8621
L5795L
sV186.0
p8622
L4268L
sV346.00
p8623
L1270L
sV787.02
p8624
L239L
sVV73.99
p8625
L4158L
sV806.8
p8626
L5244L
sV386.01
p8627
L5944L
sV752.51
p8628
L3029L
sV970.81
p8629
L2383L
sV698.1
p8630
L3328L
sV738.6
p8631
L4643L
sV770.6
p8632
L5345L
sV733.81
p8633
L1623L
sV338.2
p8634
L5453L
sV294.20
p8635
L143L
sV414.05
p8636
L6443L
sV224.3
p8637
L5705L
sV783.21
p8638
L707L
sV747.83
p8639
L8266L
sV552.29
p8640
L5529L
sV576.5
p8641
L7501L
sV724.9
p8642
L1707L
sVE819.8
p8643
L4366L
sV195.4
p8644
L6039L
sV714.31
p8645
L7043L
sVV29.1
p8646
L7251L
sV568.0
p8647
L1550L
sV777.9
p8648
L7474L
sV202.70
p8649
L7369L
sVV02.60
p8650
L7694L
sVV26.31
p8651
L5645L
sV238.3
p8652
L3274L
sV306.0
p8653
L6384L
sV239.5
p8654
L3070L
sV618.4
p8655
L2053L
sV372.34
p8656
L4383L
sV726.30
p8657
L5628L
sV648.83
p8658
L4196L
sV795.19
p8659
L5591L
sV357.1
p8660
L5857L
sV359.1
p8661
L4751L
sV161.3
p8662
L7224L
sV235.7
p8663
L4646L
sVV06.0
p8664
L1399L
sVE862.1
p8665
L6830L
sV366.01
p8666
L8473L
sV661.23
p8667
L7666L
sV427.1
p8668
L2754L
sV099.9
p8669
L2675L
sV396.1
p8670
L2118L
sV383.00
p8671
L2321L
sV274.0
p8672
L7727L
sV795.04
p8673
L4410L
sV162.0
p8674
L8012L
sV852.40
p8675
L2330L
sV642.41
p8676
L2853L
sV779.31
p8677
L4956L
sV379.33
p8678
L7593L
sV788.91
p8679
L3308L
sVE805.9
p8680
L6389L
sV249.10
p8681
L2023L
sV008.45
p8682
L650L
sVE850.1
p8683
L4302L
sV011.93
p8684
L7849L
sV524.60
p8685
L948L
sV747.9
p8686
L3631L
sVV43.82
p8687
L1497L
sV805.02
p8688
L6098L
sV572.8
p8689
L643L
sV238.4
p8690
L461L
sV694.5
p8691
L5715L
sV641.83
p8692
L5601L
s.