(lp0
L1L
aL0L
aL0L
aL1L
aL0L
aL0L
aL0L
aL0L
aL0L
aL0L
aL1L
aL0L
aL0L
aL0L
aL1L
aL0L
aL1L
aL0L
aL0L
aL0L
aL1L
aL0L
aL0L
aL0L
aL0L
aL0L
aL0L
aL0L
aL1L
aL0L
aL0L
aL0L
aL0L
aL0L
aL0L
aL0L
aL1L
aL1L
aL0L
aL0L
aL0L
aL0L
aL0L
aL1L
aL0L
aL0L
aL0L
aL0L
aL0L
aL0L
aL1L
aL1L
aL0L
aL0L
aL0L
aL0L
aL0L
aL0L
aL0L
aL0L
aL1L
aL1L
aL0L
aL0L
aL0L
aL0L
aL1L
aL0L
aL0L
aL0L
aL0L
aL0L
aL0L
aL0L
aL1L
aL0L
aL0L
aL0L
aL0L
aL1L
aL0L
aL0L
aL0L
aL0L
aL0L
aL0L
aL0L
aL0L
aL0L
aL0L
aL0L
aL0L
aL1L
aL0L
aL0L
aL0L
aL0L
aL1L
aL1L
aL0L
aL0L
aL0L
aL0L
aL0L
aL0L
aL0L
aL0L
aL0L
aL1L
aL0L
aL1L
aL0L
aL0L
aL0L
aL1L
aL1L
aL0L
aL0L
aL0L
aL0L
aL0L
aL1L
aL1L
aL0L
aL0L
aL0L
aL0L
aL0L
aL1L
aL0L
aL0L
aL0L
aL0L
aL0L
aL1L
aL1L
aL0L
aL0L
aL0L
aL0L
aL0L
aL1L
aL0L
aL0L
aL1L
aL1L
aL0L
aL0L
aL0L
aL0L
aL0L
aL0L
aL0L
aL0L
aL1L
aL0L
aL0L
aL0L
aL1L
aL0L
aL1L
aL0L
aL1L
aL0L
aL0L
aL0L
aL0L
aL0L
aL0L
aL1L
aL0L
aL0L
aL0L
aL0L
aL0L
aL0L
aL0L
aL0L
aL0L
aL0L
aL0L
aL0L
aL0L
aL1L
aL0L
aL0L
aL0L
aL0L
aL1L
aL0L
aL0L
aL0L
aL0L
aL0L
aL0L
aL0L
aL1L
aL0L
aL0L
aL0L
aL1L
aL1L
aL0L
aL0L
aL0L
aL0L
aL0L
aL0L
aL1L
aL0L
aL0L
aL0L
aL1L
aL0L
aL0L
aL0L
aL1L
aL0L
aL1L
aL0L
aL1L
aL0L
aL0L
aL0L
aL0L
aL0L
aL1L
aL0L
aL0L
aL0L
aL1L
aL1L
aL1L
aL0L
aL0L
aL0L
aL1L
aL0L
aL0L
aL0L
aL0L
aL0L
aL1L
aL0L
aL1L
aL1L
aL1L
aL1L
aL1L
aL0L
aL0L
aL0L
aL1L
aL0L
aL1L
aL0L
aL0L
aL0L
aL1L
aL0L
aL1L
aL0L
aL0L
aL0L
aL0L
aL0L
aL0L
aL0L
aL0L
aL0L
aL0L
aL0L
aL1L
aL0L
aL0L
aL1L
aL0L
aL0L
aL0L
aL0L
aL1L
aL1L
aL1L
aL0L
aL0L
aL0L
aL1L
aL0L
aL0L
aL0L
aL0L
aL1L
aL0L
aL1L
aL0L
aL0L
aL1L
aL0L
aL0L
aL0L
aL0L
aL1L
aL1L
aL0L
aL0L
aL0L
aL0L
aL0L
aL0L
aL0L
aL0L
aL0L
aL0L
aL0L
aL0L
aL0L
aL0L
aL0L
aL0L
aL0L
aL0L
aL1L
aL0L
aL0L
aL1L
aL0L
aL0L
aL1L
aL0L
aL0L
aL1L
aL0L
aL1L
aL0L
aL0L
aL1L
aL0L
aL0L
aL1L
aL0L
aL0L
aL0L
aL0L
aL0L
aL0L
aL0L
aL1L
aL0L
aL0L
aL0L
aL0L
aL1L
aL0L
aL0L
aL0L
aL0L
aL0L
aL0L
aL0L
aL0L
aL0L
aL1L
aL0L
aL1L
aL1L
aL0L
aL1L
aL0L
aL0L
aL1L
aL0L
aL0L
aL0L
aL0L
aL1L
aL0L
aL0L
aL0L
aL0L
aL1L
aL1L
aL0L
aL0L
aL0L
aL0L
aL1L
aL0L
aL1L
aL0L
aL0L
aL0L
aL0L
aL0L
aL0L
aL0L
aL0L
aL0L
aL0L
aL1L
aL0L
aL1L
aL1L
aL0L
aL0L
aL0L
aL0L
aL0L
aL0L
aL0L
aL0L
aL0L
aL1L
aL0L
aL0L
aL1L
aL0L
aL0L
aL0L
aL0L
aL0L
aL0L
aL0L
aL0L
aL0L
aL0L
aL0L
aL1L
aL0L
aL0L
aL0L
aL0L
aL0L
aL0L
aL1L
aL1L
aL0L
aL0L
aL0L
aL0L
aL1L
aL0L
aL0L
aL0L
aL1L
aL0L
aL0L
aL0L
aL0L
aL0L
aL0L
aL0L
aL0L
aL0L
aL0L
aL1L
aL0L
aL0L
aL0L
aL1L
aL0L
aL0L
aL0L
aL0L
aL1L
aL0L
aL1L
aL1L
aL0L
aL0L
aL0L
aL0L
aL0L
aL0L
aL0L
aL0L
aL1L
aL1L
aL0L
aL0L
aL1L
aL0L
aL0L
aL0L
aL0L
aL1L
aL0L
aL0L
aL0L
aL0L
aL0L
aL0L
aL0L
aL1L
aL1L
aL0L
aL0L
aL1L
aL0L
aL0L
aL1L
aL0L
aL0L
aL0L
aL0L
aL1L
aL0L
aL0L
aL0L
aL1L
aL0L
aL0L
aL1L
aL0L
aL1L
aL0L
aL0L
aL1L
aL0L
aL0L
aL0L
aL0L
aL0L
aL0L
aL0L
aL1L
aL1L
aL0L
aL0L
aL0L
aL0L
aL0L
aL1L
aL0L
aL0L
aL0L
aL0L
aL1L
aL1L
aL0L
aL1L
aL0L
aL0L
aL0L
aL0L
aL0L
aL1L
aL1L
aL0L
aL0L
aL0L
aL0L
aL0L
aL0L
aL0L
aL1L
aL0L
aL0L
aL0L
aL0L
aL0L
aL1L
aL0L
aL0L
aL0L
aL0L
aL0L
aL1L
aL0L
aL0L
aL0L
aL0L
aL1L
aL0L
aL0L
aL0L
aL0L
aL0L
aL0L
aL0L
aL0L
aL0L
aL1L
aL0L
aL0L
aL0L
aL0L
aL0L
aL0L
aL0L
aL0L
aL0L
aL0L
aL0L
aL0L
aL0L
aL0L
aL0L
aL0L
aL0L
aL1L
aL0L
aL0L
aL0L
aL0L
aL0L
aL0L
aL1L
aL1L
aL1L
aL1L
aL0L
aL0L
aL0L
aL0L
aL1L
aL0L
aL0L
aL1L
aL0L
aL0L
aL1L
aL0L
aL0L
aL0L
aL0L
aL0L
aL0L
aL0L
aL1L
aL0L
aL0L
aL0L
aL1L
aL0L
aL0L
aL1L
aL1L
aL0L
aL0L
aL1L
aL0L
aL1L
aL0L
aL0L
aL0L
aL0L
aL0L
aL0L
aL0L
aL0L
aL0L
aL0L
aL0L
aL1L
aL1L
aL0L
aL0L
aL0L
aL0L
aL1L
aL0L
aL0L
aL0L
aL0L
aL0L
aL0L
aL0L
aL1L
aL1L
aL0L
aL0L
aL0L
aL0L
aL0L
aL0L
aL0L
aL1L
aL1L
aL1L
aL1L
aL0L
aL0L
aL0L
aL0L
aL0L
aL0L
aL0L
aL0L
aL0L
aL1L
aL0L
aL1L
aL0L
aL0L
aL0L
aL1L
aL0L
aL1L
aL0L
aL0L
aL0L
aL0L
aL0L
aL0L
aL0L
aL0L
aL0L
aL1L
aL0L
aL0L
aL0L
aL0L
aL0L
aL0L
aL0L
aL1L
aL1L
aL1L
aL0L
aL1L
aL0L
aL0L
aL1L
aL0L
aL0L
aL0L
aL0L
aL1L
aL0L
aL0L
aL1L
aL0L
aL0L
aL0L
aL1L
aL0L
aL0L
aL0L
aL0L
aL1L
aL0L
aL1L
aL1L
aL0L
aL0L
aL0L
aL1L
aL0L
aL0L
aL0L
aL0L
aL0L
aL1L
aL0L
aL1L
aL1L
aL0L
aL1L
aL0L
aL0L
aL0L
aL0L
aL0L
aL0L
aL0L
aL0L
aL0L
aL0L
aL0L
aL1L
aL1L
aL0L
aL1L
aL0L
aL0L
aL0L
aL0L
aL1L
aL0L
aL1L
aL1L
aL0L
aL0L
aL0L
aL0L
aL0L
aL0L
aL0L
aL0L
aL0L
aL0L
aL0L
aL0L
aL1L
aL0L
aL0L
aL1L
aL0L
aL0L
aL0L
aL0L
aL0L
aL0L
aL0L
aL1L
aL0L
aL1L
aL0L
aL1L
aL0L
aL1L
aL1L
aL0L
aL0L
aL0L
aL1L
aL1L
aL0L
aL0L
aL0L
aL0L
aL0L
aL0L
aL0L
aL0L
aL0L
aL1L
aL0L
aL0L
aL0L
aL0L
aL0L
aL0L
aL1L
aL0L
aL1L
aL0L
aL1L
aL0L
aL0L
aL0L
aL0L
aL1L
aL0L
aL1L
aL0L
aL0L
aL0L
aL0L
aL0L
aL0L
aL0L
aL0L
aL1L
aL0L
aL0L
aL0L
aL0L
aL0L
aL1L
aL0L
aL0L
aL0L
aL0L
aL0L
aL1L
aL1L
aL0L
aL1L
aL0L
aL1L
aL0L
aL0L
aL0L
aL1L
aL0L
aL0L
aL0L
aL0L
aL0L
aL0L
aL1L
aL1L
aL0L
aL0L
aL0L
aL1L
aL0L
aL1L
aL0L
aL0L
aL0L
aL0L
aL0L
aL0L
aL0L
aL0L
aL0L
aL0L
aL0L
aL0L
aL0L
aL1L
aL1L
aL0L
aL0L
aL0L
aL1L
aL0L
aL0L
aL0L
aL0L
aL0L
aL0L
aL0L
aL1L
aL1L
aL0L
aL1L
aL0L
aL0L
aL0L
aL0L
aL0L
aL0L
aL0L
aL0L
aL0L
aL0L
aL0L
aL0L
aL0L
aL0L
aL1L
aL0L
aL0L
aL1L
aL1L
aL0L
aL0L
aL0L
aL1L
aL0L
aL0L
aL0L
aL0L
aL0L
aL0L
aL0L
aL1L
aL0L
aL0L
aL0L
aL1L
aL1L
aL0L
aL0L
aL0L
aL1L
aL0L
aL1L
aL0L
aL1L
aL0L
aL1L
aL0L
aL1L
aL0L
aL0L
aL0L
aL0L
aL1L
aL0L
aL0L
aL0L
aL0L
aL0L
aL0L
aL0L
aL0L
aL0L
aL1L
aL0L
aL0L
aL1L
aL0L
aL0L
aL0L
aL1L
aL0L
aL1L
aL0L
aL0L
aL0L
aL0L
aL0L
aL0L
aL0L
aL0L
aL0L
aL0L
aL1L
aL0L
aL0L
aL0L
aL0L
aL0L
aL0L
aL0L
aL0L
aL0L
aL0L
aL1L
aL1L
aL1L
aL0L
aL0L
aL0L
aL0L
aL0L
aL0L
aL0L
aL1L
aL0L
aL0L
aL0L
aL0L
aL0L
aL0L
aL0L
aL1L
aL0L
aL0L
aL0L
aL1L
aL0L
aL0L
aL0L
aL0L
aL0L
aL0L
aL0L
aL0L
aL0L
aL0L
aL0L
aL0L
aL0L
aL1L
aL0L
aL0L
aL0L
aL0L
aL0L
aL0L
aL0L
aL0L
aL1L
aL1L
aL1L
aL1L
aL0L
aL0L
aL1L
aL0L
aL0L
aL1L
aL0L
aL0L
aL0L
aL0L
aL1L
aL0L
aL0L
aL0L
aL0L
aL0L
aL0L
aL1L
aL1L
aL0L
aL0L
aL0L
aL0L
aL0L
aL0L
aL0L
aL0L
aL0L
aL1L
aL1L
aL1L
aL0L
aL0L
aL0L
aL0L
aL1L
aL0L
aL1L
aL1L
aL0L
aL0L
aL0L
aL1L
aL0L
aL1L
aL0L
aL1L
aL0L
aL0L
aL1L
aL0L
aL0L
aL0L
aL1L
aL0L
aL0L
aL0L
aL0L
aL0L
aL1L
aL0L
aL0L
aL0L
aL0L
aL0L
aL0L
aL0L
aL0L
aL0L
aL0L
aL0L
aL0L
aL1L
aL1L
aL1L
aL0L
aL1L
aL0L
aL0L
aL0L
aL0L
aL0L
aL0L
aL1L
aL0L
aL0L
aL0L
aL0L
aL0L
aL1L
aL0L
aL0L
aL0L
aL0L
aL1L
aL0L
aL0L
aL1L
aL1L
aL0L
aL0L
aL0L
aL0L
aL0L
aL0L
aL0L
aL1L
aL0L
aL0L
aL0L
aL0L
aL0L
aL1L
aL0L
aL1L
aL0L
aL0L
aL0L
aL0L
aL0L
aL1L
aL1L
aL0L
aL0L
aL1L
aL0L
aL0L
aL0L
aL0L
aL0L
aL1L
aL0L
aL1L
aL0L
aL0L
aL0L
aL0L
aL0L
aL0L
aL0L
aL0L
aL1L
aL0L
aL0L
aL0L
aL1L
aL0L
aL1L
aL1L
aL0L
aL0L
aL0L
aL0L
aL0L
aL1L
aL1L
aL0L
aL0L
aL0L
aL0L
aL1L
aL0L
aL0L
aL0L
aL1L
aL0L
aL0L
aL0L
aL0L
aL0L
aL1L
aL1L
aL0L
aL0L
aL0L
aL0L
aL0L
aL0L
aL0L
aL1L
aL0L
aL0L
aL1L
aL1L
aL1L
aL0L
aL0L
aL0L
aL1L
aL0L
aL1L
aL1L
aL0L
aL0L
aL0L
aL0L
aL1L
aL0L
aL0L
aL1L
aL0L
aL0L
aL1L
aL1L
aL1L
aL0L
aL0L
aL1L
aL0L
aL0L
aL0L
aL0L
aL0L
aL0L
aL0L
aL0L
aL1L
aL0L
aL0L
aL0L
aL0L
aL0L
aL1L
aL0L
aL1L
aL0L
aL0L
aL0L
aL1L
aL1L
aL1L
aL1L
aL1L
aL0L
aL0L
aL0L
aL1L
aL1L
aL0L
aL0L
aL0L
aL0L
aL0L
aL0L
aL0L
aL0L
aL1L
aL0L
aL1L
aL0L
aL0L
aL1L
aL0L
aL0L
aL0L
aL0L
aL0L
aL1L
aL0L
aL0L
aL0L
aL0L
aL0L
aL1L
aL0L
aL1L
aL0L
aL0L
aL0L
aL1L
aL0L
aL0L
aL0L
aL0L
aL1L
aL1L
aL0L
aL0L
aL1L
aL0L
aL0L
aL0L
aL0L
aL0L
aL0L
aL0L
aL0L
aL0L
aL0L
aL0L
aL0L
aL0L
aL0L
aL0L
aL0L
aL0L
aL0L
aL0L
aL0L
aL1L
aL0L
aL0L
aL0L
aL0L
aL1L
aL0L
aL0L
aL0L
aL0L
aL0L
aL0L
aL0L
aL1L
aL0L
aL0L
aL0L
aL0L
aL0L
aL0L
aL0L
aL0L
aL0L
aL0L
aL0L
aL0L
aL1L
aL0L
aL1L
aL0L
aL0L
aL1L
aL1L
aL0L
aL0L
aL0L
aL0L
aL0L
aL0L
aL0L
aL0L
aL0L
aL0L
aL1L
aL0L
aL1L
aL0L
aL0L
aL0L
aL0L
aL0L
aL1L
aL0L
aL0L
aL0L
aL0L
aL1L
aL0L
aL1L
aL0L
aL0L
aL0L
aL0L
aL0L
aL0L
aL0L
aL0L
aL0L
aL0L
aL0L
aL0L
aL1L
aL0L
aL0L
aL0L
aL0L
aL0L
aL0L
aL0L
aL0L
aL0L
aL0L
aL0L
aL0L
aL0L
aL0L
aL1L
aL0L
aL0L
aL0L
aL1L
aL1L
aL0L
aL0L
aL0L
aL0L
aL1L
aL0L
aL0L
aL1L
aL0L
aL0L
aL0L
aL1L
aL0L
aL0L
aL1L
aL0L
aL0L
aL0L
aL0L
aL1L
aL0L
aL1L
aL1L
aL0L
aL0L
aL0L
aL0L
aL0L
aL0L
aL0L
aL0L
aL0L
aL0L
aL0L
aL1L
aL0L
aL0L
aL1L
aL0L
aL1L
aL0L
aL0L
aL1L
aL0L
aL0L
aL0L
aL0L
aL0L
aL0L
aL0L
aL1L
aL0L
aL1L
aL0L
aL0L
aL0L
aL0L
aL0L
aL0L
aL0L
aL1L
aL0L
aL1L
aL0L
aL0L
aL0L
aL1L
aL1L
aL0L
aL0L
aL0L
aL0L
aL1L
aL0L
aL0L
aL0L
aL0L
aL0L
aL1L
aL1L
aL0L
aL0L
aL0L
aL0L
aL0L
aL1L
aL0L
aL1L
aL0L
aL0L
aL0L
aL0L
aL0L
aL0L
aL0L
aL0L
aL0L
aL1L
aL0L
aL0L
aL0L
aL0L
aL0L
aL0L
aL1L
aL1L
aL0L
aL0L
aL0L
aL1L
aL1L
aL0L
aL1L
aL0L
aL1L
aL0L
aL0L
aL0L
aL0L
aL0L
aL0L
aL0L
aL0L
aL1L
aL0L
aL0L
aL0L
aL0L
aL1L
aL1L
aL0L
aL1L
aL0L
aL0L
aL0L
aL0L
aL0L
aL1L
aL1L
aL0L
aL0L
aL0L
aL0L
aL1L
aL0L
aL0L
aL0L
aL0L
aL1L
aL0L
aL1L
aL0L
aL0L
aL0L
aL0L
aL0L
aL0L
aL1L
aL0L
aL1L
aL0L
aL0L
aL0L
aL0L
aL0L
aL0L
aL0L
aL0L
aL0L
aL0L
aL1L
aL0L
aL0L
aL0L
aL1L
aL0L
aL1L
aL0L
aL0L
aL0L
aL0L
aL0L
aL1L
aL0L
aL0L
aL0L
aL0L
aL1L
aL0L
aL0L
aL0L
aL0L
aL0L
aL0L
aL1L
aL0L
aL0L
aL0L
aL0L
aL1L
aL0L
aL0L
aL0L
aL0L
aL0L
aL0L
aL1L
aL0L
aL0L
aL0L
aL0L
aL0L
aL0L
aL0L
aL0L
aL0L
aL0L
aL1L
aL0L
aL0L
aL1L
aL0L
aL0L
aL1L
aL1L
aL0L
aL0L
aL1L
aL0L
aL0L
aL0L
aL0L
aL0L
aL0L
aL0L
aL0L
aL0L
aL0L
aL0L
aL0L
aL1L
aL0L
aL0L
aL1L
aL0L
aL0L
aL0L
aL1L
aL0L
aL1L
aL0L
aL0L
aL0L
aL0L
aL1L
aL0L
aL1L
aL0L
aL0L
aL0L
aL0L
aL0L
aL0L
aL1L
aL0L
aL0L
aL0L
aL0L
aL0L
aL0L
aL0L
aL0L
aL0L
aL0L
aL1L
aL0L
aL0L
aL0L
aL1L
aL0L
aL0L
aL1L
aL0L
aL0L
aL1L
aL1L
aL0L
aL0L
aL0L
aL1L
aL1L
aL1L
aL0L
aL0L
aL0L
aL0L
aL1L
aL1L
aL0L
aL0L
aL0L
aL0L
aL0L
aL0L
aL0L
aL0L
aL0L
aL0L
aL0L
aL1L
aL0L
aL1L
aL0L
aL0L
aL0L
aL1L
aL0L
aL0L
aL1L
aL1L
aL0L
aL0L
aL0L
aL0L
aL0L
aL1L
aL0L
aL1L
aL1L
aL0L
aL0L
aL0L
aL0L
aL1L
aL1L
aL0L
aL1L
aL0L
aL1L
aL0L
aL1L
aL0L
aL0L
aL0L
aL0L
aL0L
aL1L
aL0L
aL1L
aL0L
aL0L
aL0L
aL1L
aL0L
aL0L
aL0L
aL1L
aL1L
aL1L
aL1L
aL1L
aL0L
aL1L
aL0L
aL0L
aL1L
aL1L
aL0L
aL0L
aL0L
aL0L
aL1L
aL0L
aL1L
aL0L
aL1L
aL0L
aL0L
aL0L
aL0L
aL0L
aL0L
aL0L
aL0L
aL0L
aL0L
aL0L
aL0L
aL0L
aL1L
aL0L
aL0L
aL1L
aL0L
aL0L
aL0L
aL1L
aL0L
aL0L
aL0L
aL0L
aL0L
aL0L
aL0L
aL1L
aL0L
aL0L
aL1L
aL0L
aL1L
aL1L
aL0L
aL1L
aL0L
aL0L
aL0L
aL0L
aL0L
aL0L
aL1L
aL0L
aL1L
aL0L
aL0L
aL0L
aL1L
aL0L
aL0L
aL1L
aL1L
aL0L
aL0L
aL0L
aL0L
aL0L
aL0L
aL0L
aL0L
aL1L
aL0L
aL0L
aL0L
aL0L
aL0L
aL0L
aL1L
aL0L
aL0L
aL0L
aL0L
aL0L
aL1L
aL0L
aL0L
aL0L
aL0L
aL0L
aL0L
aL0L
aL0L
aL0L
aL1L
aL1L
aL1L
aL0L
aL0L
aL0L
aL0L
aL1L
aL1L
aL1L
aL0L
aL0L
aL1L
aL0L
aL1L
aL0L
aL1L
aL0L
aL1L
aL0L
aL0L
aL0L
aL1L
aL0L
aL0L
aL1L
aL0L
aL0L
aL0L
aL0L
aL0L
aL0L
aL0L
aL0L
aL0L
aL1L
aL0L
aL1L
aL0L
aL1L
aL1L
aL0L
aL0L
aL0L
aL0L
aL1L
aL1L
aL0L
aL0L
aL0L
aL0L
aL0L
aL0L
aL1L
aL1L
aL0L
aL1L
aL0L
aL0L
aL0L
aL1L
aL0L
aL0L
aL0L
aL0L
aL0L
aL0L
aL1L
aL0L
aL0L
aL0L
aL0L
aL1L
aL0L
aL0L
aL0L
aL1L
aL1L
aL0L
aL0L
aL1L
aL0L
aL1L
aL0L
aL0L
aL1L
aL0L
aL0L
aL1L
aL1L
aL0L
aL0L
aL0L
aL0L
aL0L
aL1L
aL1L
aL0L
aL0L
aL0L
aL0L
aL0L
aL0L
aL1L
aL0L
aL0L
aL0L
aL0L
aL0L
aL0L
aL0L
aL1L
aL0L
aL1L
aL0L
aL0L
aL0L
aL0L
aL1L
aL1L
aL1L
aL0L
aL0L
aL0L
aL1L
aL0L
aL0L
aL0L
aL0L
aL1L
aL1L
aL1L
aL0L
aL0L
aL0L
aL0L
aL1L
aL1L
aL1L
aL1L
aL1L
aL0L
aL0L
aL0L
aL0L
aL0L
aL0L
aL1L
aL1L
aL0L
aL1L
aL1L
aL0L
aL0L
aL0L
aL0L
aL0L
aL0L
aL0L
aL0L
aL0L
aL0L
aL0L
aL1L
aL1L
aL1L
aL0L
aL0L
aL1L
aL0L
aL0L
aL0L
aL0L
aL0L
aL0L
aL0L
aL0L
aL0L
aL0L
aL0L
aL0L
aL0L
aL1L
aL1L
aL1L
aL1L
aL0L
aL0L
aL0L
aL1L
aL1L
aL1L
aL0L
aL0L
aL0L
aL0L
aL0L
aL0L
aL0L
aL0L
aL0L
aL1L
aL0L
aL1L
aL0L
aL1L
aL1L
aL0L
aL1L
aL0L
aL1L
aL0L
aL0L
aL1L
aL0L
aL1L
aL0L
aL0L
aL0L
aL0L
aL0L
aL1L
aL0L
aL0L
aL0L
aL0L
aL0L
aL0L
aL0L
aL0L
aL0L
aL0L
aL0L
aL1L
aL0L
aL1L
aL0L
aL0L
aL0L
aL1L
aL1L
aL0L
aL0L
aL0L
aL0L
aL0L
aL0L
aL0L
aL0L
aL1L
aL0L
aL1L
aL0L
aL0L
aL1L
aL1L
aL0L
aL1L
aL1L
aL0L
aL0L
aL0L
aL0L
aL0L
aL1L
aL0L
aL0L
aL1L
aL0L
aL0L
aL0L
aL0L
aL0L
aL0L
aL0L
aL1L
aL0L
aL0L
aL0L
aL1L
aL0L
aL1L
aL0L
aL0L
aL0L
aL0L
aL0L
aL0L
aL0L
aL0L
aL0L
aL0L
aL1L
aL0L
aL0L
aL0L
aL0L
aL0L
aL1L
aL1L
aL0L
aL0L
aL1L
aL0L
aL0L
aL1L
aL0L
aL0L
aL0L
aL0L
aL0L
aL1L
aL0L
aL1L
aL0L
aL1L
aL0L
aL1L
aL0L
aL0L
aL0L
aL0L
aL0L
aL0L
aL0L
aL0L
aL0L
aL0L
aL0L
aL0L
aL1L
aL1L
aL1L
aL1L
aL1L
aL0L
aL1L
aL0L
aL1L
aL0L
aL0L
aL0L
aL0L
aL0L
aL0L
aL0L
aL0L
aL0L
aL0L
aL0L
aL0L
aL1L
aL0L
aL0L
aL0L
aL1L
aL0L
aL0L
aL0L
aL0L
aL0L
aL0L
aL0L
aL1L
aL0L
aL0L
aL0L
aL0L
aL0L
aL0L
aL0L
aL0L
aL0L
aL1L
aL1L
aL0L
aL0L
aL0L
aL0L
aL0L
aL0L
aL1L
aL0L
aL0L
aL0L
aL0L
aL0L
aL0L
aL0L
aL0L
aL1L
aL0L
aL0L
aL0L
aL0L
aL0L
aL0L
aL0L
aL0L
aL0L
aL0L
aL0L
aL0L
aL0L
aL0L
aL0L
aL0L
aL0L
aL0L
aL0L
aL0L
aL1L
aL0L
aL0L
aL0L
aL1L
aL0L
aL0L
aL0L
aL0L
aL0L
aL0L
aL1L
aL0L
aL0L
aL0L
aL0L
aL0L
aL0L
aL0L
aL0L
aL0L
aL1L
aL1L
aL0L
aL0L
aL0L
aL0L
aL0L
aL1L
aL0L
aL1L
aL0L
aL0L
aL1L
aL0L
aL0L
aL1L
aL0L
aL1L
aL0L
aL0L
aL0L
aL0L
aL0L
aL0L
aL1L
aL1L
aL0L
aL0L
aL1L
aL0L
aL1L
aL0L
aL1L
aL0L
aL0L
aL0L
aL0L
aL0L
aL0L
aL0L
aL0L
aL0L
aL0L
aL1L
aL1L
aL1L
aL0L
aL0L
aL0L
aL1L
aL0L
aL1L
aL0L
aL0L
aL0L
aL0L
aL0L
aL0L
aL0L
aL0L
aL0L
aL0L
aL0L
aL0L
aL1L
aL0L
aL0L
aL0L
aL0L
aL0L
aL0L
aL1L
aL1L
aL0L
aL0L
aL1L
aL0L
aL0L
aL0L
aL0L
aL0L
aL0L
aL1L
aL0L
aL0L
aL1L
aL0L
aL1L
aL0L
aL0L
aL1L
aL0L
aL0L
aL0L
aL1L
aL0L
aL1L
aL0L
aL0L
aL0L
aL0L
aL1L
aL0L
aL1L
aL0L
aL1L
aL0L
aL1L
aL0L
aL0L
aL0L
aL0L
aL1L
aL0L
aL0L
aL1L
aL0L
aL0L
aL0L
aL0L
aL0L
aL0L
aL0L
aL1L
aL0L
aL0L
aL1L
aL0L
aL0L
aL1L
aL0L
aL1L
aL1L
aL0L
aL0L
aL0L
aL0L
aL0L
aL0L
aL1L
aL0L
aL0L
aL0L
aL0L
aL0L
aL0L
aL1L
aL0L
aL1L
aL0L
aL1L
aL0L
aL0L
aL0L
aL1L
aL1L
aL0L
aL0L
aL0L
aL0L
aL0L
aL0L
aL0L
aL0L
aL1L
aL1L
aL0L
aL0L
aL0L
aL0L
aL0L
aL1L
aL0L
aL0L
aL0L
aL0L
aL0L
aL0L
aL1L
aL0L
aL0L
aL0L
aL0L
aL0L
aL0L
aL0L
aL1L
aL1L
aL0L
aL0L
aL0L
aL1L
aL0L
aL0L
aL0L
aL0L
aL0L
aL0L
aL0L
aL0L
aL0L
aL0L
aL0L
aL0L
aL0L
aL0L
aL0L
aL0L
aL0L
aL0L
aL0L
aL0L
aL0L
aL1L
aL0L
aL0L
aL0L
aL0L
aL0L
aL0L
aL0L
aL0L
aL0L
aL1L
aL0L
aL0L
aL1L
aL0L
aL0L
aL0L
aL0L
aL1L
aL0L
aL0L
aL1L
aL1L
aL0L
aL0L
aL1L
aL1L
aL0L
aL0L
aL0L
aL0L
aL0L
aL0L
aL0L
aL1L
aL0L
aL0L
aL0L
aL0L
aL0L
aL0L
aL0L
aL0L
aL1L
aL1L
aL0L
aL0L
aL0L
aL0L
aL0L
aL0L
aL0L
aL0L
aL1L
aL0L
aL1L
aL0L
aL0L
aL0L
aL0L
aL0L
aL0L
aL0L
aL1L
aL0L
aL1L
aL0L
aL0L
aL0L
aL0L
aL0L
aL0L
aL0L
aL0L
aL1L
aL0L
aL0L
aL0L
aL1L
aL0L
aL1L
aL0L
aL1L
aL0L
aL0L
aL1L
aL0L
aL0L
aL0L
aL0L
aL0L
aL1L
aL0L
aL0L
aL0L
aL0L
aL0L
aL0L
aL0L
aL0L
aL0L
aL0L
aL1L
aL0L
aL1L
aL1L
aL0L
aL0L
aL0L
aL1L
aL0L
aL0L
aL0L
aL0L
aL0L
aL0L
aL0L
aL0L
aL1L
aL0L
aL0L
aL0L
aL0L
aL0L
aL0L
aL1L
aL1L
aL1L
aL1L
aL0L
aL0L
aL0L
aL0L
aL1L
aL0L
aL1L
aL0L
aL0L
aL0L
aL0L
aL0L
aL0L
aL0L
aL0L
aL0L
aL0L
aL0L
aL0L
aL0L
aL1L
aL0L
aL0L
aL0L
aL0L
aL0L
aL0L
aL0L
aL0L
aL0L
aL0L
aL0L
aL0L
aL1L
aL0L
aL0L
aL0L
aL0L
aL0L
aL1L
aL0L
aL1L
aL0L
aL0L
aL1L
aL0L
aL0L
aL0L
aL1L
aL0L
aL1L
aL0L
aL0L
aL0L
aL0L
aL0L
aL0L
aL0L
aL0L
aL0L
aL1L
aL0L
aL0L
aL1L
aL0L
aL0L
aL0L
aL0L
aL0L
aL0L
aL0L
aL0L
aL0L
aL0L
aL0L
aL0L
aL0L
aL0L
aL0L
aL0L
aL0L
aL0L
aL1L
aL0L
aL1L
aL0L
aL1L
aL1L
aL1L
aL1L
aL0L
aL0L
aL0L
aL0L
aL1L
aL0L
aL1L
aL0L
aL0L
aL0L
aL0L
aL1L
aL0L
aL0L
aL0L
aL0L
aL0L
aL0L
aL0L
aL0L
aL1L
aL0L
aL0L
aL0L
aL0L
aL0L
aL1L
aL1L
aL0L
aL0L
aL0L
aL0L
aL0L
aL0L
aL0L
aL1L
aL0L
aL0L
aL0L
aL0L
aL1L
aL0L
aL0L
aL0L
aL0L
aL1L
aL0L
aL0L
aL1L
aL0L
aL0L
aL0L
aL0L
aL0L
aL0L
aL0L
aL0L
aL0L
aL0L
aL0L
aL0L
aL1L
aL1L
aL0L
aL1L
aL0L
aL0L
aL0L
aL0L
aL1L
aL0L
aL1L
aL1L
aL0L
aL0L
aL0L
aL1L
aL0L
aL0L
aL0L
aL1L
aL1L
aL1L
aL0L
aL0L
aL1L
aL0L
aL1L
aL0L
aL0L
aL0L
aL0L
aL0L
aL1L
aL0L
aL0L
aL0L
aL0L
aL0L
aL0L
aL0L
aL1L
aL0L
aL0L
aL0L
aL0L
aL0L
aL0L
aL0L
aL0L
aL0L
aL0L
aL0L
aL0L
aL0L
aL1L
aL0L
aL1L
aL1L
aL0L
aL0L
aL0L
aL0L
aL0L
aL0L
aL1L
aL1L
aL0L
aL0L
aL0L
aL0L
aL1L
aL0L
aL0L
aL0L
aL0L
aL0L
aL0L
aL1L
aL0L
aL0L
aL1L
aL1L
aL0L
aL0L
aL0L
aL0L
aL1L
aL1L
aL1L
aL0L
aL0L
aL0L
aL0L
aL0L
aL1L
aL1L
aL0L
aL0L
aL0L
aL1L
aL0L
aL0L
aL0L
aL0L
aL0L
aL0L
aL0L
aL0L
aL0L
aL1L
aL0L
aL1L
aL0L
aL1L
aL1L
aL0L
aL1L
aL1L
aL0L
aL1L
aL0L
aL0L
aL1L
aL0L
aL1L
aL0L
aL0L
aL0L
aL0L
aL1L
aL0L
aL0L
aL1L
aL0L
aL0L
aL1L
aL0L
aL0L
aL0L
aL0L
aL0L
aL1L
aL0L
aL0L
aL0L
aL0L
aL0L
aL0L
aL0L
aL0L
aL0L
aL0L
aL0L
aL0L
aL0L
aL0L
aL0L
aL0L
aL0L
aL0L
aL0L
aL0L
aL0L
aL0L
aL0L
aL1L
aL0L
aL0L
aL0L
aL1L
aL1L
aL0L
aL1L
aL0L
aL0L
aL0L
aL1L
aL0L
aL0L
aL1L
aL0L
aL0L
aL0L
aL0L
aL0L
aL0L
aL0L
aL0L
aL1L
aL1L
aL0L
aL0L
aL1L
aL1L
aL0L
aL1L
aL1L
aL0L
aL0L
aL1L
aL0L
aL1L
aL1L
aL0L
aL0L
aL0L
aL0L
aL1L
aL0L
aL0L
aL0L
aL0L
aL1L
aL0L
aL1L
aL0L
aL0L
aL0L
aL1L
aL0L
aL1L
aL0L
aL0L
aL0L
aL0L
aL0L
aL0L
aL0L
aL0L
aL0L
aL1L
aL1L
aL0L
aL1L
aL0L
aL1L
aL0L
aL1L
aL0L
aL0L
aL1L
aL0L
aL0L
aL0L
aL0L
aL0L
aL0L
aL0L
aL0L
aL0L
aL0L
aL0L
aL0L
aL1L
aL0L
aL0L
aL1L
aL0L
aL1L
aL0L
aL0L
aL0L
aL0L
aL0L
aL1L
aL1L
aL1L
aL0L
aL0L
aL1L
aL0L
aL0L
aL0L
aL0L
aL1L
aL0L
aL0L
aL0L
aL0L
aL0L
aL1L
aL0L
aL0L
aL0L
aL0L
aL1L
aL1L
aL0L
aL1L
aL0L
aL0L
aL0L
aL0L
aL0L
aL0L
aL0L
aL0L
aL1L
aL0L
aL1L
aL0L
aL0L
aL1L
aL0L
aL1L
aL0L
aL1L
aL0L
aL1L
aL1L
aL0L
aL0L
aL1L
aL0L
aL0L
aL0L
aL1L
aL1L
aL0L
aL1L
aL1L
aL0L
aL0L
aL1L
aL0L
aL0L
aL0L
aL0L
aL1L
aL1L
aL0L
aL1L
aL1L
aL0L
aL0L
aL0L
aL0L
aL1L
aL1L
aL1L
aL0L
aL0L
aL1L
aL0L
aL0L
aL0L
aL0L
aL0L
aL0L
aL0L
aL1L
aL0L
aL0L
aL0L
aL1L
aL0L
aL0L
aL0L
aL0L
aL1L
aL0L
aL0L
aL0L
aL1L
aL0L
aL0L
aL0L
aL0L
aL1L
aL0L
aL0L
aL1L
aL0L
aL0L
aL0L
aL0L
aL1L
aL0L
aL0L
aL0L
aL0L
aL0L
aL1L
aL1L
aL0L
aL0L
aL1L
aL0L
aL0L
aL0L
aL0L
aL0L
aL0L
aL0L
aL0L
aL0L
aL1L
aL0L
aL1L
aL1L
aL1L
aL0L
aL1L
aL0L
aL0L
aL0L
aL0L
aL1L
aL0L
aL0L
aL0L
aL0L
aL1L
aL0L
aL0L
aL0L
aL0L
aL0L
aL0L
aL0L
aL0L
aL0L
aL0L
aL0L
aL1L
aL0L
aL1L
aL0L
aL1L
aL0L
aL0L
aL0L
aL1L
aL0L
aL1L
aL0L
aL0L
aL0L
aL1L
aL1L
aL1L
aL1L
aL0L
aL0L
aL0L
aL0L
aL1L
aL1L
aL0L
aL0L
aL1L
aL0L
aL0L
aL0L
aL0L
aL1L
aL0L
aL0L
aL0L
aL0L
aL0L
aL0L
aL1L
aL0L
aL1L
aL0L
aL1L
aL0L
aL0L
aL1L
aL0L
aL1L
aL0L
aL0L
aL0L
aL1L
aL0L
aL0L
aL0L
aL0L
aL1L
aL0L
aL0L
aL1L
aL0L
aL0L
aL0L
aL0L
aL0L
aL1L
aL1L
aL0L
aL0L
aL0L
aL0L
aL0L
aL0L
aL0L
aL0L
aL0L
aL0L
aL0L
aL0L
aL0L
aL1L
aL0L
aL0L
aL0L
aL0L
aL0L
aL0L
aL1L
aL1L
aL0L
aL0L
aL0L
aL1L
aL0L
aL1L
aL1L
aL0L
aL0L
aL0L
aL0L
aL0L
aL0L
aL0L
aL1L
aL0L
aL0L
aL0L
aL1L
aL1L
aL0L
aL0L
aL0L
aL1L
aL0L
aL0L
aL0L
aL0L
aL0L
aL0L
aL0L
aL0L
aL0L
aL0L
aL1L
aL0L
aL0L
aL0L
aL0L
aL0L
aL0L
aL0L
aL0L
aL0L
aL0L
aL0L
aL1L
aL0L
aL0L
aL0L
aL1L
aL0L
aL1L
aL0L
aL0L
aL0L
aL1L
aL1L
aL0L
aL0L
aL0L
aL0L
aL1L
aL0L
aL0L
aL0L
aL0L
aL1L
aL0L
aL0L
aL0L
aL1L
aL0L
aL1L
aL0L
aL1L
aL0L
aL1L
aL0L
aL0L
aL0L
aL0L
aL0L
aL0L
aL0L
aL0L
aL0L
aL0L
aL0L
aL0L
aL0L
aL0L
aL1L
aL1L
aL0L
aL0L
aL0L
aL0L
aL0L
aL1L
aL0L
aL0L
aL0L
aL0L
aL0L
aL0L
aL1L
aL0L
aL1L
aL0L
aL0L
aL0L
aL0L
aL1L
aL1L
aL0L
aL1L
aL1L
aL1L
aL0L
aL0L
aL0L
aL0L
aL0L
aL0L
aL0L
aL0L
aL0L
aL0L
aL0L
aL1L
aL0L
aL0L
aL0L
aL0L
aL0L
aL0L
aL0L
aL1L
aL0L
aL0L
aL0L
aL0L
aL0L
aL0L
aL0L
aL0L
aL1L
aL1L
aL0L
aL0L
aL1L
aL0L
aL0L
aL1L
aL0L
aL0L
aL0L
aL1L
aL0L
aL1L
aL0L
aL0L
aL1L
aL0L
aL0L
aL0L
aL1L
aL0L
aL0L
aL0L
aL1L
aL0L
aL0L
aL0L
aL0L
aL0L
aL1L
aL0L
aL0L
aL0L
aL0L
aL0L
aL1L
aL0L
aL0L
aL1L
aL0L
aL1L
aL0L
aL1L
aL0L
aL0L
aL0L
aL0L
aL1L
aL0L
aL0L
aL1L
aL0L
aL0L
aL1L
aL1L
aL0L
aL0L
aL0L
aL0L
aL0L
aL0L
aL0L
aL0L
aL1L
aL0L
aL1L
aL0L
aL0L
aL0L
aL0L
aL0L
aL0L
aL0L
aL0L
aL1L
aL0L
aL1L
aL0L
aL1L
aL1L
aL1L
aL0L
aL1L
aL1L
aL0L
aL0L
aL0L
aL0L
aL1L
aL1L
aL0L
aL0L
aL0L
aL0L
aL0L
aL0L
aL0L
aL0L
aL0L
aL0L
aL0L
aL0L
aL0L
aL0L
aL0L
aL1L
aL0L
aL0L
aL0L
aL0L
aL1L
aL1L
aL0L
aL0L
aL0L
aL1L
aL0L
aL1L
aL1L
aL0L
aL0L
aL1L
aL0L
aL1L
aL1L
aL0L
aL0L
aL0L
aL1L
aL0L
aL0L
aL0L
aL0L
aL0L
aL0L
aL0L
aL0L
aL0L
aL0L
aL0L
aL0L
aL0L
aL0L
aL1L
aL0L
aL1L
aL1L
aL0L
aL1L
aL0L
aL1L
aL1L
aL0L
aL0L
aL0L
aL1L
aL0L
aL0L
aL1L
aL0L
aL1L
aL0L
aL1L
aL1L
aL0L
aL0L
aL0L
aL0L
aL0L
aL0L
aL0L
aL0L
aL1L
aL0L
aL1L
aL1L
aL0L
aL1L
aL0L
aL0L
aL1L
aL0L
aL0L
aL0L
aL0L
aL0L
aL0L
aL0L
aL0L
aL0L
aL0L
aL0L
aL0L
aL0L
aL0L
aL0L
aL0L
aL1L
aL0L
aL0L
aL0L
aL0L
aL0L
aL0L
aL0L
aL0L
aL0L
aL0L
aL0L
aL0L
aL1L
aL0L
aL0L
aL1L
aL0L
aL0L
aL0L
aL0L
aL1L
aL1L
aL0L
aL0L
aL1L
aL0L
aL0L
aL0L
aL0L
aL0L
aL0L
aL0L
aL0L
aL1L
aL1L
aL0L
aL0L
aL0L
aL0L
aL0L
aL1L
aL0L
aL1L
aL0L
aL0L
aL1L
aL1L
aL0L
aL1L
aL0L
aL1L
aL0L
aL0L
aL0L
aL0L
aL0L
aL0L
aL0L
aL0L
aL1L
aL0L
aL0L
aL0L
aL0L
aL1L
aL1L
aL0L
aL1L
aL1L
aL0L
aL0L
aL0L
aL0L
aL0L
aL1L
aL1L
aL0L
aL0L
aL0L
aL0L
aL0L
aL1L
aL0L
aL1L
aL0L
aL1L
aL0L
aL0L
aL1L
aL0L
aL0L
aL0L
aL0L
aL0L
aL1L
aL0L
aL1L
aL0L
aL0L
aL1L
aL0L
aL0L
aL0L
aL1L
aL1L
aL0L
aL0L
aL0L
aL0L
aL0L
aL1L
aL0L
aL0L
aL0L
aL0L
aL0L
aL0L
aL0L
aL0L
aL1L
aL0L
aL1L
aL0L
aL1L
aL0L
aL0L
aL0L
aL0L
aL1L
aL0L
aL0L
aL1L
aL1L
aL0L
aL0L
aL1L
aL1L
aL0L
aL0L
aL0L
aL0L
aL0L
aL0L
aL1L
aL0L
aL1L
aL0L
aL1L
aL0L
aL0L
aL0L
aL0L
aL0L
aL1L
aL0L
aL0L
aL0L
aL1L
aL0L
aL0L
aL1L
aL0L
aL0L
aL1L
aL0L
aL1L
aL1L
aL0L
aL0L
aL1L
aL0L
aL0L
aL0L
aL0L
aL0L
aL0L
aL0L
aL0L
aL0L
aL0L
aL0L
aL0L
aL0L
aL0L
aL0L
aL0L
aL0L
aL0L
aL1L
aL0L
aL0L
aL0L
aL0L
aL0L
aL0L
aL1L
aL0L
aL0L
aL0L
aL0L
aL0L
aL0L
aL0L
aL0L
aL0L
aL0L
aL0L
aL0L
aL0L
aL0L
aL0L
aL0L
aL0L
aL1L
aL1L
aL0L
aL1L
aL0L
aL1L
aL0L
aL1L
aL0L
aL0L
aL0L
aL1L
aL0L
aL1L
aL0L
aL0L
aL1L
aL0L
aL0L
aL1L
aL1L
aL0L
aL0L
aL0L
aL0L
aL0L
aL0L
aL0L
aL0L
aL1L
aL0L
aL0L
aL0L
aL0L
aL1L
aL0L
aL0L
aL0L
aL0L
aL0L
aL0L
aL1L
aL0L
aL0L
aL0L
aL0L
aL1L
aL1L
aL0L
aL0L
aL0L
aL0L
aL0L
aL0L
aL0L
aL1L
aL0L
aL1L
aL1L
aL0L
aL0L
aL1L
aL1L
aL0L
aL1L
aL0L
aL0L
aL0L
aL0L
aL0L
aL0L
aL0L
aL0L
aL0L
aL0L
aL0L
aL0L
aL0L
aL0L
aL0L
aL0L
aL0L
aL1L
aL1L
aL0L
aL1L
aL0L
aL0L
aL1L
aL0L
aL0L
aL1L
aL0L
aL0L
aL0L
aL0L
aL0L
aL1L
aL1L
aL0L
aL1L
aL1L
aL0L
aL0L
aL0L
aL0L
aL0L
aL0L
aL0L
aL0L
aL0L
aL1L
aL0L
aL0L
aL1L
aL0L
aL1L
aL0L
aL0L
aL0L
aL1L
aL0L
aL0L
aL0L
aL0L
aL0L
aL0L
aL0L
aL1L
aL1L
aL0L
aL0L
aL0L
aL0L
aL0L
aL0L
aL0L
aL1L
aL0L
aL0L
aL1L
aL0L
aL0L
aL0L
aL0L
aL0L
aL0L
aL0L
aL1L
aL0L
aL0L
aL0L
aL0L
aL0L
aL0L
aL0L
aL1L
aL0L
aL0L
aL0L
aL0L
aL0L
aL0L
aL0L
aL0L
aL0L
aL0L
aL0L
aL1L
aL0L
aL0L
aL0L
aL0L
aL0L
aL0L
aL1L
aL1L
aL0L
aL0L
aL0L
aL0L
aL1L
aL0L
aL0L
aL0L
aL0L
aL0L
aL0L
aL0L
aL0L
aL0L
aL1L
aL0L
aL0L
aL0L
aL0L
aL1L
aL1L
aL0L
aL1L
aL0L
aL0L
aL0L
aL0L
aL0L
aL1L
aL0L
aL1L
aL0L
aL1L
aL1L
aL0L
aL0L
aL1L
aL0L
aL0L
aL1L
aL0L
aL0L
aL1L
aL0L
aL0L
aL0L
aL0L
aL0L
aL0L
aL1L
aL0L
aL0L
aL0L
aL0L
aL0L
aL1L
aL1L
aL1L
aL0L
aL0L
aL0L
aL0L
aL0L
aL0L
aL1L
aL0L
aL0L
aL1L
aL0L
aL0L
aL0L
aL0L
aL0L
aL0L
aL0L
aL0L
aL0L
aL1L
aL0L
aL0L
aL1L
aL0L
aL0L
aL1L
aL0L
aL0L
aL0L
aL0L
aL0L
aL0L
aL0L
aL1L
aL1L
aL0L
aL1L
aL0L
aL0L
aL1L
aL0L
aL1L
aL0L
aL0L
aL0L
aL0L
aL0L
aL1L
aL0L
aL0L
aL0L
aL0L
aL0L
aL1L
aL0L
aL0L
aL0L
aL0L
aL1L
aL0L
aL0L
aL0L
aL0L
aL1L
aL1L
aL0L
aL0L
aL0L
aL1L
aL0L
aL0L
aL0L
aL0L
aL1L
aL0L
aL0L
aL1L
aL0L
aL0L
aL0L
aL1L
aL0L
aL0L
aL0L
aL0L
aL1L
aL0L
aL1L
aL0L
aL0L
aL0L
aL0L
aL0L
aL0L
aL0L
aL1L
aL1L
aL1L
aL0L
aL0L
aL0L
aL0L
aL0L
aL0L
aL0L
aL0L
aL1L
aL0L
aL0L
aL0L
aL0L
aL0L
aL1L
aL0L
aL0L
aL0L
aL0L
aL0L
aL0L
aL1L
aL0L
aL0L
aL1L
aL1L
aL0L
aL1L
aL0L
aL1L
aL0L
aL0L
aL1L
aL1L
aL1L
aL0L
aL1L
aL0L
aL1L
aL0L
aL1L
aL1L
aL0L
aL1L
aL0L
aL1L
aL1L
aL1L
aL0L
aL0L
aL0L
aL0L
aL0L
aL0L
aL0L
aL0L
aL0L
aL1L
aL1L
aL1L
aL0L
aL0L
aL0L
aL1L
aL0L
aL0L
aL0L
aL0L
aL1L
aL0L
aL0L
aL1L
aL0L
aL1L
aL0L
aL1L
aL0L
aL0L
aL0L
aL0L
aL0L
aL1L
aL0L
aL0L
aL0L
aL0L
aL0L
aL0L
aL0L
aL0L
aL0L
aL0L
aL1L
aL0L
aL0L
aL1L
aL0L
aL0L
aL0L
aL0L
aL0L
aL0L
aL1L
aL1L
aL0L
aL0L
aL1L
aL0L
aL0L
aL0L
aL0L
aL1L
aL0L
aL0L
aL0L
aL0L
aL0L
aL0L
aL0L
aL1L
aL1L
aL1L
aL0L
aL0L
aL0L
aL0L
aL1L
aL0L
aL0L
aL0L
aL0L
aL0L
aL0L
aL0L
aL1L
aL0L
aL1L
aL0L
aL1L
aL0L
aL0L
aL0L
aL1L
aL0L
aL0L
aL1L
aL1L
aL0L
aL0L
aL1L
aL0L
aL0L
aL0L
aL1L
aL0L
aL0L
aL0L
aL0L
aL0L
aL0L
aL0L
aL0L
aL0L
aL0L
aL0L
aL1L
aL0L
aL0L
aL1L
aL0L
aL1L
aL1L
aL0L
aL0L
aL0L
aL1L
aL0L
aL1L
aL1L
aL0L
aL1L
aL0L
aL0L
aL0L
aL0L
aL0L
aL0L
aL0L
aL1L
aL0L
aL0L
aL1L
aL0L
aL1L
aL0L
aL0L
aL0L
aL0L
aL0L
aL0L
aL0L
aL0L
aL0L
aL0L
aL1L
aL0L
aL0L
aL0L
aL1L
aL1L
aL0L
aL0L
aL0L
aL0L
aL0L
aL0L
aL0L
aL1L
aL0L
aL0L
aL1L
aL0L
aL0L
aL0L
aL0L
aL0L
aL1L
aL0L
aL0L
aL0L
aL1L
aL0L
aL0L
aL1L
aL0L
aL0L
aL0L
aL1L
aL0L
aL0L
aL0L
aL0L
aL1L
aL1L
aL1L
aL0L
aL1L
aL0L
aL1L
aL0L
aL0L
aL0L
aL1L
aL0L
aL0L
aL0L
aL0L
aL1L
aL1L
aL0L
aL0L
aL1L
aL0L
aL1L
aL0L
aL0L
aL0L
aL0L
aL0L
aL1L
aL0L
aL0L
aL0L
aL0L
aL1L
aL1L
aL0L
aL0L
aL0L
aL0L
aL0L
aL0L
aL0L
aL1L
aL0L
aL0L
aL0L
aL0L
aL0L
aL0L
aL0L
aL1L
aL0L
aL0L
aL0L
aL1L
aL0L
aL0L
aL0L
aL1L
aL0L
aL0L
aL1L
aL0L
aL1L
aL0L
aL0L
aL0L
aL1L
aL1L
aL0L
aL0L
aL0L
aL0L
aL0L
aL1L
aL0L
aL1L
aL0L
aL0L
aL0L
aL0L
aL1L
aL0L
aL1L
aL0L
aL0L
aL0L
aL0L
aL0L
aL0L
aL0L
aL1L
aL0L
aL0L
aL0L
aL0L
aL0L
aL0L
aL1L
aL0L
aL0L
aL1L
aL0L
aL0L
aL1L
aL1L
aL0L
aL0L
aL0L
aL1L
aL0L
aL0L
aL0L
aL0L
aL0L
aL0L
aL0L
aL0L
aL0L
aL0L
aL1L
aL1L
aL1L
aL1L
aL0L
aL0L
aL0L
aL1L
aL0L
aL0L
aL1L
aL0L
aL0L
aL0L
aL1L
aL0L
aL1L
aL0L
aL0L
aL0L
aL0L
aL0L
aL1L
aL0L
aL0L
aL1L
aL0L
aL1L
aL1L
aL0L
aL1L
aL0L
aL1L
aL0L
aL1L
aL0L
aL0L
aL1L
aL1L
aL0L
aL0L
aL0L
aL0L
aL0L
aL1L
aL1L
aL0L
aL0L
aL0L
aL1L
aL0L
aL0L
aL1L
aL0L
aL0L
aL1L
aL0L
aL0L
aL1L
aL1L
aL0L
aL1L
aL0L
aL0L
aL0L
aL0L
aL1L
aL0L
aL0L
aL1L
aL0L
aL1L
aL0L
aL1L
aL0L
aL0L
aL1L
aL0L
aL0L
aL0L
aL0L
aL0L
aL0L
aL1L
aL0L
aL0L
aL0L
aL0L
aL0L
aL0L
aL0L
aL0L
aL1L
aL0L
aL0L
aL0L
aL0L
aL0L
aL0L
aL0L
aL0L
aL0L
aL0L
aL0L
aL0L
aL0L
aL0L
aL1L
aL0L
aL1L
aL0L
aL1L
aL0L
aL0L
aL1L
aL1L
aL1L
aL0L
aL1L
aL0L
aL0L
aL0L
aL0L
aL1L
aL0L
aL1L
aL0L
aL0L
aL0L
aL0L
aL1L
aL0L
aL0L
aL1L
aL0L
aL0L
aL0L
aL0L
aL0L
aL0L
aL0L
aL0L
aL0L
aL0L
aL0L
aL0L
aL0L
aL0L
aL0L
aL0L
aL0L
aL0L
aL0L
aL0L
aL0L
aL0L
aL0L
aL0L
aL0L
aL0L
aL0L
aL0L
aL0L
aL1L
aL1L
aL0L
aL0L
aL1L
aL0L
aL0L
aL1L
aL0L
aL0L
aL0L
aL1L
aL1L
aL0L
aL0L
aL0L
aL0L
aL0L
aL1L
aL0L
aL1L
aL0L
aL1L
aL0L
aL0L
aL0L
aL0L
aL0L
aL1L
aL0L
aL0L
aL1L
aL1L
aL1L
aL1L
aL0L
aL1L
aL1L
aL0L
aL0L
aL0L
aL0L
aL0L
aL0L
aL1L
aL0L
aL0L
aL0L
aL0L
aL0L
aL1L
aL0L
aL1L
aL0L
aL0L
aL0L
aL0L
aL0L
aL0L
aL0L
aL0L
aL0L
aL1L
aL1L
aL1L
aL0L
aL0L
aL0L
aL1L
aL0L
aL0L
aL1L
aL0L
aL0L
aL0L
aL1L
aL0L
aL1L
aL0L
aL0L
aL1L
aL0L
aL0L
aL0L
aL0L
aL0L
aL0L
aL0L
aL0L
aL1L
aL0L
aL0L
aL1L
aL0L
aL1L
aL0L
aL0L
aL0L
aL0L
aL1L
aL0L
aL1L
aL0L
aL1L
aL1L
aL0L
aL0L
aL0L
aL0L
aL1L
aL0L
aL0L
aL1L
aL0L
aL0L
aL0L
aL0L
aL0L
aL1L
aL0L
aL0L
aL1L
aL1L
aL0L
aL0L
aL0L
aL1L
aL0L
aL0L
aL1L
aL1L
aL0L
aL1L
aL0L
aL0L
aL0L
aL1L
aL1L
aL0L
aL0L
aL0L
aL1L
aL0L
aL1L
aL0L
aL0L
aL1L
aL0L
aL0L
aL0L
aL0L
aL0L
aL0L
aL0L
aL1L
aL0L
aL1L
aL1L
aL0L
aL0L
aL0L
aL1L
aL1L
aL0L
aL0L
aL0L
aL0L
aL1L
aL0L
aL1L
aL0L
aL1L
aL0L
aL0L
aL0L
aL1L
aL0L
aL1L
aL0L
aL0L
aL1L
aL1L
aL0L
aL0L
aL1L
aL1L
aL0L
aL0L
aL0L
aL0L
aL0L
aL0L
aL0L
aL0L
aL1L
aL1L
aL1L
aL1L
aL1L
aL0L
aL0L
aL1L
aL1L
aL0L
aL0L
aL1L
aL0L
aL0L
aL0L
aL0L
aL0L
aL0L
aL0L
aL0L
aL1L
aL1L
aL0L
aL0L
aL0L
aL0L
aL1L
aL1L
aL0L
aL0L
aL1L
aL1L
aL1L
aL0L
aL0L
aL1L
aL1L
aL0L
aL0L
aL0L
aL1L
aL0L
aL1L
aL1L
aL0L
aL0L
aL0L
aL0L
aL0L
aL1L
aL1L
aL0L
aL0L
aL0L
aL0L
aL1L
aL0L
aL1L
aL1L
aL1L
aL0L
aL0L
aL1L
aL0L
aL1L
aL0L
aL0L
aL0L
aL0L
aL0L
aL1L
aL0L
aL1L
aL0L
aL0L
aL0L
aL1L
aL0L
aL1L
aL0L
aL1L
aL0L
aL0L
aL0L
aL0L
aL0L
aL1L
aL0L
aL0L
aL0L
aL0L
aL0L
aL0L
aL0L
aL0L
aL0L
aL0L
aL0L
aL0L
aL0L
aL0L
aL0L
aL0L
aL0L
aL0L
aL0L
aL0L
aL0L
aL1L
aL0L
aL0L
aL0L
aL0L
aL0L
aL0L
aL0L
aL0L
aL0L
aL0L
aL0L
aL0L
aL0L
aL1L
aL0L
aL0L
aL0L
aL0L
aL1L
aL0L
aL0L
aL1L
aL0L
aL1L
aL0L
aL0L
aL0L
aL0L
aL1L
aL0L
aL0L
aL0L
aL0L
aL0L
aL1L
aL1L
aL0L
aL0L
aL0L
aL0L
aL1L
aL1L
aL1L
aL1L
aL1L
aL1L
aL0L
aL1L
aL0L
aL1L
aL1L
aL0L
aL0L
aL0L
aL1L
aL1L
aL1L
aL0L
aL1L
aL0L
aL0L
aL1L
aL0L
aL1L
aL0L
aL1L
aL0L
aL0L
aL0L
aL1L
aL0L
aL0L
aL0L
aL0L
aL1L
aL1L
aL1L
aL0L
aL1L
aL0L
aL0L
aL0L
aL0L
aL0L
aL1L
aL0L
aL0L
aL0L
aL1L
aL0L
aL0L
aL1L
aL0L
aL0L
aL0L
aL0L
aL1L
aL0L
aL0L
aL1L
aL0L
aL1L
aL1L
aL1L
aL0L
aL0L
aL0L
aL1L
aL1L
aL0L
aL0L
aL0L
aL1L
aL0L
aL0L
aL0L
aL0L
aL1L
aL0L
aL0L
aL0L
aL0L
aL0L
aL1L
aL0L
aL0L
aL0L
aL0L
aL0L
aL1L
aL0L
aL0L
aL1L
aL0L
aL1L
aL0L
aL0L
aL0L
aL0L
aL1L
aL0L
aL1L
aL1L
aL0L
aL0L
aL0L
aL0L
aL0L
aL0L
aL0L
aL1L
aL1L
aL0L
aL0L
aL0L
aL0L
aL0L
aL1L
aL1L
aL1L
aL0L
aL0L
aL1L
aL0L
aL0L
aL1L
aL0L
aL0L
aL1L
aL1L
aL0L
aL0L
aL0L
aL0L
aL0L
aL0L
aL0L
aL1L
aL0L
aL0L
aL1L
aL0L
aL1L
aL0L
aL1L
aL0L
aL0L
aL1L
aL1L
aL1L
aL0L
aL0L
aL0L
aL0L
aL0L
aL0L
aL0L
aL1L
aL0L
aL0L
aL0L
aL1L
aL0L
aL0L
aL0L
aL0L
aL0L
aL0L
aL1L
aL0L
aL0L
aL0L
aL1L
aL0L
aL1L
aL1L
aL0L
aL0L
aL1L
aL0L
aL0L
aL0L
aL0L
aL0L
aL0L
aL0L
aL0L
aL0L
aL0L
aL1L
aL0L
aL0L
aL0L
aL1L
aL1L
aL0L
aL0L
aL0L
aL1L
aL0L
aL0L
aL0L
aL0L
aL1L
aL0L
aL0L
aL0L
aL0L
aL0L
aL0L
aL0L
aL0L
aL0L
aL1L
aL1L
aL1L
aL0L
aL0L
aL0L
aL0L
aL1L
aL0L
aL1L
aL0L
aL0L
aL0L
aL0L
aL1L
aL0L
aL0L
aL0L
aL0L
aL0L
aL0L
aL0L
aL0L
aL0L
aL0L
aL0L
aL0L
aL0L
aL0L
aL0L
aL0L
aL0L
aL0L
aL0L
aL0L
aL0L
aL1L
aL0L
aL1L
aL0L
aL0L
aL0L
aL0L
aL1L
aL0L
aL0L
aL0L
aL1L
aL1L
aL1L
aL0L
aL0L
aL0L
aL0L
aL0L
aL0L
aL0L
aL0L
aL0L
aL0L
aL0L
aL0L
aL1L
aL0L
aL1L
aL0L
aL0L
aL1L
aL0L
aL0L
aL0L
aL0L
aL0L
aL0L
aL0L
aL0L
aL0L
aL0L
aL0L
aL0L
aL0L
aL0L
aL0L
aL0L
aL0L
aL0L
aL1L
aL0L
aL0L
aL0L
aL0L
aL0L
aL0L
aL1L
aL0L
aL0L
aL0L
aL0L
aL0L
aL0L
aL1L
aL0L
aL1L
aL0L
aL1L
aL0L
aL1L
aL0L
aL0L
aL0L
aL1L
aL1L
aL0L
aL0L
aL1L
aL1L
aL1L
aL0L
aL0L
aL0L
aL0L
aL0L
aL0L
aL0L
aL0L
aL1L
aL1L
aL0L
aL0L
aL0L
aL0L
aL0L
aL0L
aL1L
aL0L
aL0L
aL0L
aL1L
aL1L
aL0L
aL0L
aL0L
aL0L
aL0L
aL0L
aL0L
aL0L
aL0L
aL0L
aL1L
aL1L
aL0L
aL0L
aL0L
aL0L
aL0L
aL0L
aL0L
aL0L
aL1L
aL0L
aL1L
aL0L
aL0L
aL1L
aL0L
aL1L
aL1L
aL0L
aL0L
aL0L
aL1L
aL0L
aL0L
aL1L
aL0L
aL0L
aL0L
aL0L
aL0L
aL0L
aL1L
aL1L
aL0L
aL0L
aL1L
aL1L
aL0L
aL1L
aL0L
aL0L
aL0L
aL1L
aL0L
aL0L
aL0L
aL0L
aL0L
aL1L
aL0L
aL0L
aL0L
aL0L
aL1L
aL0L
aL0L
aL0L
aL0L
aL0L
aL1L
aL0L
aL0L
aL0L
aL1L
aL0L
aL1L
aL0L
aL0L
aL0L
aL1L
aL0L
aL0L
aL1L
aL0L
aL0L
aL0L
aL0L
aL0L
aL0L
aL0L
aL0L
aL0L
aL0L
aL0L
aL0L
aL0L
aL0L
aL1L
aL0L
aL0L
aL1L
aL0L
aL0L
aL0L
aL0L
aL0L
aL0L
aL0L
aL0L
aL1L
aL1L
aL0L
aL0L
aL0L
aL0L
aL0L
aL1L
aL0L
aL0L
aL0L
aL1L
aL0L
aL0L
aL1L
aL1L
aL0L
aL0L
aL0L
aL0L
aL0L
aL0L
aL1L
aL1L
aL1L
aL0L
aL1L
aL1L
aL1L
aL0L
aL0L
aL0L
aL0L
aL0L
aL0L
aL1L
aL1L
aL0L
aL0L
aL0L
aL0L
aL0L
aL0L
aL0L
aL1L
aL0L
aL0L
aL0L
aL0L
aL0L
aL0L
aL0L
aL0L
aL1L
aL0L
aL0L
aL0L
aL0L
aL1L
aL1L
aL0L
aL1L
aL0L
aL0L
aL0L
aL0L
aL0L
aL0L
aL0L
aL1L
aL0L
aL1L
aL0L
aL0L
aL1L
aL1L
aL0L
aL0L
aL0L
aL0L
aL0L
aL0L
aL0L
aL0L
aL1L
aL0L
aL0L
aL0L
aL0L
aL1L
aL0L
aL0L
aL0L
aL0L
aL0L
aL1L
aL0L
aL0L
aL0L
aL0L
aL0L
aL0L
aL0L
aL0L
aL0L
aL0L
aL0L
aL0L
aL0L
aL1L
aL1L
aL0L
aL0L
aL0L
aL1L
aL1L
aL0L
aL0L
aL0L
aL1L
aL0L
aL0L
aL0L
aL0L
aL0L
aL1L
aL0L
aL0L
aL0L
aL0L
aL0L
aL1L
aL1L
aL0L
aL1L
aL1L
aL0L
aL0L
aL1L
aL0L
aL0L
aL0L
aL0L
aL0L
aL1L
aL1L
aL0L
aL0L
aL0L
aL0L
aL0L
aL0L
aL0L
aL0L
aL0L
aL0L
aL0L
aL0L
aL0L
aL0L
aL0L
aL0L
aL0L
aL0L
aL0L
aL1L
aL0L
aL0L
aL0L
aL1L
aL0L
aL0L
aL0L
aL0L
aL1L
aL0L
aL0L
aL0L
aL0L
aL0L
aL0L
aL1L
aL0L
aL1L
aL0L
aL0L
aL0L
aL0L
aL0L
aL0L
aL0L
aL1L
aL0L
aL0L
aL0L
aL1L
aL0L
aL0L
aL1L
aL1L
aL1L
aL0L
aL0L
aL0L
aL0L
aL0L
aL1L
aL1L
aL0L
aL0L
aL0L
aL1L
aL0L
aL1L
aL0L
aL1L
aL0L
aL1L
aL1L
aL0L
aL0L
aL0L
aL0L
aL0L
aL0L
aL0L
aL1L
aL0L
aL0L
aL0L
aL1L
aL0L
aL0L
aL0L
aL1L
aL0L
aL0L
aL1L
aL0L
aL0L
aL0L
aL1L
aL0L
aL0L
aL0L
aL1L
aL0L
aL1L
aL0L
aL1L
aL0L
aL0L
aL0L
aL0L
aL0L
aL0L
aL0L
aL1L
aL0L
aL0L
aL0L
aL0L
aL0L
aL0L
aL1L
aL0L
aL0L
aL0L
aL0L
aL0L
aL0L
aL1L
aL1L
aL0L
aL0L
aL1L
aL0L
aL0L
aL0L
aL0L
aL0L
aL1L
aL0L
aL0L
aL0L
aL0L
aL0L
aL0L
aL1L
aL0L
aL0L
aL0L
aL0L
aL0L
aL0L
aL1L
aL1L
aL0L
aL1L
aL0L
aL0L
aL1L
aL0L
aL0L
aL0L
aL0L
aL0L
aL1L
aL1L
aL0L
aL0L
aL0L
aL0L
aL0L
aL0L
aL0L
aL0L
aL0L
aL0L
aL0L
aL0L
aL0L
aL0L
aL0L
aL0L
aL0L
aL0L
aL0L
aL0L
aL0L
aL0L
aL0L
aL0L
aL0L
aL1L
aL1L
aL1L
aL0L
aL0L
aL0L
aL0L
aL1L
aL0L
aL1L
aL1L
aL1L
aL0L
aL0L
aL0L
aL0L
aL1L
aL0L
aL0L
aL1L
aL0L
aL0L
aL0L
aL1L
aL1L
aL0L
aL1L
aL0L
aL0L
aL0L
aL0L
aL0L
aL0L
aL0L
aL0L
aL0L
aL0L
aL1L
aL1L
aL0L
aL0L
aL1L
aL0L
aL0L
aL0L
aL0L
aL0L
aL0L
aL0L
aL0L
aL0L
aL0L
aL0L
aL0L
aL0L
aL0L
aL0L
aL1L
aL0L
aL0L
aL0L
aL0L
aL0L
aL0L
aL0L
aL0L
aL0L
aL0L
aL1L
aL1L
aL0L
aL1L
aL0L
aL0L
aL0L
aL0L
aL1L
aL0L
aL0L
aL0L
aL1L
aL0L
aL0L
aL0L
aL1L
aL0L
aL0L
aL0L
aL0L
aL0L
aL0L
aL0L
aL0L
aL0L
aL0L
aL0L
aL0L
aL0L
aL1L
aL0L
aL0L
aL1L
aL0L
aL0L
aL1L
aL0L
aL1L
aL0L
aL1L
aL0L
aL0L
aL0L
aL0L
aL1L
aL0L
aL0L
aL0L
aL0L
aL1L
aL1L
aL0L
aL0L
aL0L
aL0L
aL1L
aL1L
aL0L
aL1L
aL1L
aL1L
aL1L
aL0L
aL0L
aL0L
aL0L
aL0L
aL0L
aL0L
aL0L
aL0L
aL0L
aL1L
aL1L
aL0L
aL1L
aL0L
aL0L
aL0L
aL0L
aL0L
aL0L
aL1L
aL0L
aL0L
aL1L
aL1L
aL1L
aL0L
aL0L
aL0L
aL1L
aL0L
aL1L
aL1L
aL0L
aL1L
aL0L
aL1L
aL0L
aL0L
aL0L
aL0L
aL1L
aL0L
aL0L
aL0L
aL0L
aL0L
aL0L
aL1L
aL0L
aL0L
aL1L
aL0L
aL1L
aL0L
aL1L
aL0L
aL1L
aL1L
aL0L
aL0L
aL0L
aL0L
aL0L
aL0L
aL0L
aL0L
aL1L
aL0L
aL0L
aL0L
aL1L
aL0L
aL0L
aL0L
aL0L
aL0L
aL0L
aL0L
aL0L
aL0L
aL1L
aL0L
aL0L
aL0L
aL0L
aL1L
aL0L
aL0L
aL0L
aL0L
aL0L
aL0L
aL0L
aL0L
aL1L
aL0L
aL0L
aL1L
aL0L
aL0L
aL1L
aL0L
aL0L
aL1L
aL0L
aL0L
aL0L
aL0L
aL0L
aL0L
aL0L
aL1L
aL0L
aL0L
aL0L
aL0L
aL0L
aL0L
aL0L
aL0L
aL0L
aL0L
aL0L
aL0L
aL1L
aL0L
aL1L
aL0L
aL0L
aL0L
aL0L
aL0L
aL1L
aL0L
aL0L
aL0L
aL0L
aL1L
aL0L
aL0L
aL0L
aL0L
aL0L
aL0L
aL1L
aL0L
aL0L
aL0L
aL0L
aL0L
aL0L
aL0L
aL0L
aL0L
aL0L
aL0L
aL0L
aL1L
aL1L
aL0L
aL1L
aL1L
aL0L
aL1L
aL0L
aL0L
aL0L
aL0L
aL0L
aL0L
aL0L
aL1L
aL0L
aL1L
aL0L
aL1L
aL1L
aL1L
aL1L
aL0L
aL0L
aL1L
aL0L
aL1L
aL0L
aL1L
aL0L
aL0L
aL1L
aL0L
aL0L
aL1L
aL0L
aL0L
aL0L
aL0L
aL1L
aL0L
aL0L
aL0L
aL0L
aL0L
aL0L
aL0L
aL0L
aL0L
aL0L
aL0L
aL0L
aL1L
aL0L
aL0L
aL0L
aL0L
aL0L
aL0L
aL0L
aL0L
aL0L
aL0L
aL1L
aL0L
aL1L
aL1L
aL1L
aL0L
aL0L
aL1L
aL1L
aL0L
aL0L
aL0L
aL0L
aL0L
aL1L
aL0L
aL0L
aL0L
aL0L
aL0L
aL0L
aL0L
aL0L
aL0L
aL0L
aL0L
aL1L
aL1L
aL1L
aL0L
aL0L
aL1L
aL0L
aL0L
aL1L
aL1L
aL0L
aL1L
aL0L
aL0L
aL0L
aL0L
aL1L
aL0L
aL1L
aL0L
aL0L
aL0L
aL0L
aL0L
aL0L
aL0L
aL1L
aL0L
aL0L
aL0L
aL0L
aL0L
aL1L
aL0L
aL0L
aL0L
aL0L
aL0L
aL0L
aL0L
aL0L
aL0L
aL1L
aL0L
aL1L
aL0L
aL1L
aL0L
aL1L
aL0L
aL0L
aL0L
aL0L
aL1L
aL0L
aL0L
aL0L
aL1L
aL0L
aL0L
aL0L
aL0L
aL0L
aL0L
aL0L
aL1L
aL1L
aL1L
aL0L
aL0L
aL0L
aL0L
aL0L
aL1L
aL1L
aL0L
aL0L
aL0L
aL0L
aL0L
aL1L
aL0L
aL0L
aL1L
aL0L
aL0L
aL0L
aL0L
aL0L
aL0L
aL0L
aL1L
aL1L
aL0L
aL0L
aL0L
aL0L
aL1L
aL0L
aL0L
aL0L
aL0L
aL0L
aL0L
aL1L
aL0L
aL0L
aL0L
aL0L
aL0L
aL0L
aL0L
aL1L
aL0L
aL0L
aL0L
aL0L
aL0L
aL0L
aL0L
aL0L
aL0L
aL0L
aL1L
aL1L
aL0L
aL0L
aL1L
aL1L
aL0L
aL0L
aL1L
aL0L
aL1L
aL0L
aL1L
aL1L
aL0L
aL0L
aL0L
aL1L
aL0L
aL0L
aL0L
aL1L
aL0L
aL1L
aL1L
aL0L
aL0L
aL1L
aL0L
aL1L
aL0L
aL0L
aL0L
aL0L
aL0L
aL1L
aL0L
aL0L
aL0L
aL0L
aL0L
aL1L
aL0L
aL0L
aL0L
aL0L
aL0L
aL1L
aL0L
aL0L
aL0L
aL0L
aL0L
aL0L
aL0L
aL0L
aL0L
aL0L
aL0L
aL1L
aL0L
aL0L
aL0L
aL1L
aL0L
aL0L
aL0L
aL0L
aL0L
aL0L
aL0L
aL1L
aL0L
aL0L
aL1L
aL0L
aL0L
aL0L
aL0L
aL0L
aL1L
aL0L
aL0L
aL1L
aL1L
aL0L
aL0L
aL0L
aL0L
aL0L
aL0L
aL0L
aL0L
aL0L
aL0L
aL1L
aL0L
aL0L
aL0L
aL0L
aL0L
aL1L
aL0L
aL0L
aL0L
aL0L
aL0L
aL0L
aL0L
aL0L
aL0L
aL0L
aL0L
aL1L
aL0L
aL1L
aL0L
aL0L
aL1L
aL0L
aL0L
aL0L
aL0L
aL0L
aL0L
aL0L
aL0L
aL0L
aL1L
aL0L
aL0L
aL1L
aL0L
aL1L
aL0L
aL0L
aL0L
aL0L
aL0L
aL1L
aL0L
aL1L
aL0L
aL0L
aL0L
aL0L
aL0L
aL0L
aL0L
aL0L
aL0L
aL1L
aL0L
aL1L
aL0L
aL0L
aL1L
aL1L
aL0L
aL1L
aL0L
aL1L
aL0L
aL0L
aL0L
aL0L
aL0L
aL0L
aL0L
aL0L
aL0L
aL0L
aL0L
aL0L
aL0L
aL0L
aL1L
aL0L
aL0L
aL0L
aL0L
aL0L
aL0L
aL0L
aL0L
aL1L
aL1L
aL0L
aL0L
aL1L
aL1L
aL0L
aL0L
aL0L
aL1L
aL0L
aL0L
aL0L
aL0L
aL0L
aL1L
aL0L
aL0L
aL0L
aL0L
aL0L
aL0L
aL0L
aL1L
aL0L
aL0L
aL0L
aL0L
aL1L
aL0L
aL0L
aL0L
aL0L
aL0L
aL0L
aL1L
aL0L
aL0L
aL0L
aL1L
aL0L
aL1L
aL1L
aL0L
aL0L
aL0L
aL1L
aL0L
aL0L
aL0L
aL0L
aL1L
aL1L
aL1L
aL1L
aL1L
aL0L
aL0L
aL0L
aL1L
aL1L
aL0L
aL0L
aL0L
aL0L
aL1L
aL0L
aL0L
aL0L
aL0L
aL0L
aL0L
aL1L
aL0L
aL0L
aL0L
aL0L
aL0L
aL0L
aL0L
aL1L
aL0L
aL1L
aL0L
aL0L
aL0L
aL0L
aL1L
aL0L
aL0L
aL0L
aL0L
aL0L
aL0L
aL0L
aL0L
aL0L
aL1L
aL0L
aL0L
aL0L
aL1L
aL0L
aL0L
aL0L
aL0L
aL0L
aL0L
aL1L
aL0L
aL0L
aL0L
aL0L
aL1L
aL0L
aL1L
aL0L
aL1L
aL0L
aL1L
aL0L
aL0L
aL0L
aL0L
aL1L
aL1L
aL0L
aL1L
aL0L
aL0L
aL0L
aL1L
aL0L
aL0L
aL0L
aL0L
aL0L
aL1L
aL0L
aL0L
aL1L
aL0L
aL1L
aL0L
aL1L
aL0L
aL1L
aL0L
aL0L
aL0L
aL0L
aL0L
aL0L
aL0L
aL0L
aL0L
aL0L
aL0L
aL0L
aL0L
aL0L
aL0L
aL0L
aL1L
aL0L
aL1L
aL1L
aL1L
aL0L
aL1L
aL0L
aL0L
aL1L
aL0L
aL0L
aL0L
aL0L
aL0L
aL0L
aL1L
aL0L
aL0L
aL0L
aL0L
aL0L
aL0L
aL0L
aL0L
aL0L
aL0L
aL0L
aL1L
aL0L
aL0L
aL0L
aL1L
aL1L
aL1L
aL0L
aL0L
aL0L
aL0L
aL0L
aL0L
aL0L
aL0L
aL0L
aL0L
aL1L
aL0L
aL1L
aL0L
aL1L
aL0L
aL0L
aL0L
aL0L
aL0L
aL0L
aL0L
aL1L
aL0L
aL0L
aL0L
aL1L
aL0L
aL0L
aL0L
aL0L
aL0L
aL1L
aL1L
aL0L
aL1L
aL0L
aL0L
aL0L
aL1L
aL0L
aL0L
aL0L
aL0L
aL1L
aL0L
aL0L
aL0L
aL1L
aL1L
aL0L
aL0L
aL0L
aL0L
aL0L
aL0L
aL0L
aL0L
aL0L
aL0L
aL0L
aL0L
aL0L
aL0L
aL1L
aL0L
aL0L
aL0L
aL1L
aL1L
aL0L
aL0L
aL1L
aL0L
aL0L
aL1L
aL0L
aL0L
aL0L
aL0L
aL1L
aL0L
aL1L
aL0L
aL1L
aL1L
aL1L
aL0L
aL1L
aL1L
aL1L
aL0L
aL0L
aL0L
aL0L
aL0L
aL0L
aL0L
aL1L
aL0L
aL0L
aL0L
aL0L
aL1L
aL0L
aL0L
aL0L
aL1L
aL0L
aL0L
aL0L
aL0L
aL0L
aL1L
aL0L
aL0L
aL1L
aL0L
aL1L
aL1L
aL1L
aL0L
aL0L
aL0L
aL0L
aL0L
aL0L
aL0L
aL1L
aL0L
aL1L
aL0L
aL0L
aL0L
aL0L
aL1L
aL0L
aL0L
aL0L
aL0L
aL1L
aL0L
aL1L
aL1L
aL1L
aL0L
aL0L
aL1L
aL0L
aL0L
aL0L
aL1L
aL0L
aL0L
aL0L
aL1L
aL0L
aL1L
aL0L
aL0L
aL0L
aL1L
aL1L
aL0L
aL0L
aL1L
aL0L
aL0L
aL1L
aL0L
aL0L
aL0L
aL0L
aL1L
aL0L
aL0L
aL0L
aL1L
aL0L
aL0L
aL0L
aL0L
aL1L
aL0L
aL0L
aL0L
aL0L
aL0L
aL0L
aL0L
aL0L
aL0L
aL0L
aL1L
aL0L
aL0L
aL1L
aL0L
aL0L
aL1L
aL1L
aL0L
aL0L
aL0L
aL0L
aL1L
aL0L
aL0L
aL0L
aL0L
aL1L
aL0L
aL0L
aL0L
aL0L
aL0L
aL1L
aL0L
aL0L
aL1L
aL0L
aL0L
aL0L
aL0L
aL1L
aL0L
aL0L
aL0L
aL0L
aL0L
aL0L
aL0L
aL0L
aL0L
aL1L
aL0L
aL0L
aL0L
aL0L
aL1L
aL1L
aL0L
aL0L
aL0L
aL0L
aL0L
aL1L
aL0L
aL0L
aL0L
aL0L
aL1L
aL0L
aL0L
aL0L
aL0L
aL0L
aL1L
aL1L
aL0L
aL0L
aL0L
aL1L
aL0L
aL0L
aL0L
aL0L
aL0L
aL0L
aL1L
aL0L
aL0L
aL1L
aL0L
aL0L
aL0L
aL0L
aL0L
aL0L
aL0L
aL0L
aL0L
aL1L
aL0L
aL1L
aL0L
aL0L
aL0L
aL0L
aL0L
aL1L
aL0L
aL0L
aL1L
aL0L
aL1L
aL0L
aL0L
aL0L
aL0L
aL0L
aL0L
aL0L
aL0L
aL0L
aL0L
aL0L
aL1L
aL0L
aL0L
aL0L
aL1L
aL0L
aL0L
aL0L
aL1L
aL0L
aL0L
aL0L
aL1L
aL0L
aL1L
aL1L
aL1L
aL1L
aL0L
aL0L
aL0L
aL0L
aL0L
aL0L
aL0L
aL1L
aL0L
aL0L
aL1L
aL0L
aL0L
aL0L
aL0L
aL0L
aL0L
aL0L
aL0L
aL1L
aL0L
aL1L
aL0L
aL0L
aL0L
aL0L
aL1L
aL0L
aL1L
aL0L
aL1L
aL0L
aL1L
aL0L
aL0L
aL0L
aL1L
aL0L
aL0L
aL0L
aL0L
aL0L
aL0L
aL0L
aL0L
aL0L
aL0L
aL0L
aL0L
aL0L
aL1L
aL0L
aL1L
aL0L
aL0L
aL0L
aL0L
aL0L
aL0L
aL0L
aL0L
aL0L
aL0L
aL1L
aL0L
aL0L
aL1L
aL1L
aL1L
aL0L
aL0L
aL0L
aL1L
aL0L
aL0L
aL1L
aL0L
aL0L
aL0L
aL0L
aL0L
aL1L
aL0L
aL0L
aL1L
aL0L
aL0L
aL0L
aL0L
aL0L
aL0L
aL1L
aL0L
aL1L
aL0L
aL0L
aL0L
aL0L
aL0L
aL0L
aL1L
aL0L
aL0L
aL0L
aL0L
aL0L
aL0L
aL0L
aL0L
aL1L
aL0L
aL0L
aL0L
aL0L
aL0L
aL0L
aL1L
aL0L
aL0L
aL0L
aL0L
aL0L
aL0L
aL0L
aL0L
aL0L
aL0L
aL1L
aL0L
aL0L
aL0L
aL0L
aL1L
aL0L
aL0L
aL0L
aL0L
aL0L
aL0L
aL0L
aL1L
aL0L
aL0L
aL1L
aL0L
aL0L
aL0L
aL0L
aL1L
aL0L
aL1L
aL0L
aL0L
aL0L
aL0L
aL0L
aL0L
aL0L
aL1L
aL0L
aL0L
aL1L
aL0L
aL0L
aL0L
aL0L
aL1L
aL0L
aL0L
aL0L
aL0L
aL0L
aL0L
aL0L
aL0L
aL0L
aL0L
aL0L
aL0L
aL0L
aL0L
aL0L
aL0L
aL0L
aL1L
aL0L
aL0L
aL1L
aL0L
aL1L
aL1L
aL0L
aL0L
aL0L
aL0L
aL0L
aL0L
aL0L
aL0L
aL0L
aL0L
aL0L
aL1L
aL0L
aL1L
aL0L
aL0L
aL0L
aL0L
aL1L
aL0L
aL0L
aL0L
aL0L
aL1L
aL0L
aL0L
aL1L
aL0L
aL0L
aL0L
aL0L
aL0L
aL0L
aL0L
aL0L
aL1L
aL0L
aL0L
aL1L
aL0L
aL1L
aL0L
aL0L
aL0L
aL0L
aL0L
aL0L
aL0L
aL0L
aL0L
aL0L
aL1L
aL0L
aL0L
aL0L
aL0L
aL0L
aL0L
aL1L
aL0L
aL0L
aL1L
aL0L
aL1L
aL1L
aL1L
aL0L
aL1L
aL0L
aL0L
aL0L
aL0L
aL1L
aL0L
aL0L
aL0L
aL0L
aL0L
aL0L
aL0L
aL1L
aL0L
aL0L
aL0L
aL0L
aL1L
aL0L
aL0L
aL1L
aL0L
aL0L
aL0L
aL0L
aL0L
aL0L
aL0L
aL0L
aL0L
aL0L
aL0L
aL0L
aL0L
aL1L
aL0L
aL0L
aL1L
aL0L
aL0L
aL1L
aL0L
aL0L
aL1L
aL0L
aL0L
aL0L
aL0L
aL0L
aL0L
aL0L
aL0L
aL0L
aL1L
aL0L
aL0L
aL0L
aL0L
aL0L
aL0L
aL0L
aL1L
aL1L
aL0L
aL1L
aL0L
aL0L
aL0L
aL1L
aL0L
aL0L
aL0L
aL0L
aL0L
aL0L
aL0L
aL0L
aL0L
aL0L
aL1L
aL0L
aL0L
aL0L
aL0L
aL0L
aL1L
aL0L
aL0L
aL0L
aL0L
aL0L
aL0L
aL0L
aL0L
aL1L
aL0L
aL1L
aL0L
aL0L
aL0L
aL0L
aL0L
aL1L
aL1L
aL0L
aL0L
aL0L
aL0L
aL0L
aL0L
aL0L
aL1L
aL0L
aL1L
aL0L
aL0L
aL0L
aL0L
aL0L
aL1L
aL0L
aL0L
aL0L
aL0L
aL0L
aL0L
aL0L
aL0L
aL1L
aL0L
aL1L
aL0L
aL0L
aL0L
aL0L
aL0L
aL0L
aL1L
aL0L
aL0L
aL1L
aL1L
aL0L
aL1L
aL0L
aL0L
aL0L
aL0L
aL0L
aL1L
aL0L
aL0L
aL0L
aL0L
aL0L
aL1L
aL0L
aL1L
aL0L
aL1L
aL0L
aL1L
aL1L
aL1L
aL0L
aL0L
aL0L
aL0L
aL1L
aL0L
aL0L
aL0L
aL1L
aL0L
aL0L
aL1L
aL0L
aL0L
aL0L
aL0L
aL0L
aL1L
aL0L
aL0L
aL0L
aL0L
aL0L
aL1L
aL0L
aL0L
aL1L
aL0L
aL0L
aL0L
aL1L
aL0L
aL0L
aL0L
aL0L
aL0L
aL0L
aL0L
aL1L
aL0L
aL1L
aL0L
aL1L
aL1L
aL0L
aL0L
aL0L
aL0L
aL1L
aL1L
aL0L
aL1L
aL1L
aL0L
aL1L
aL0L
aL0L
aL0L
aL0L
aL1L
aL0L
aL0L
aL1L
aL0L
aL0L
aL0L
aL1L
aL0L
aL1L
aL0L
aL0L
aL0L
aL0L
aL0L
aL0L
aL0L
aL0L
aL0L
aL1L
aL0L
aL0L
aL0L
aL0L
aL0L
aL1L
aL1L
aL0L
aL0L
aL0L
aL0L
aL0L
aL0L
aL0L
aL0L
aL1L
aL0L
aL1L
aL0L
aL0L
aL0L
aL0L
aL1L
aL0L
aL0L
aL1L
aL0L
aL0L
aL1L
aL0L
aL0L
aL0L
aL0L
aL0L
aL1L
aL1L
aL0L
aL1L
aL0L
aL0L
aL1L
aL1L
aL0L
aL1L
aL0L
aL0L
aL1L
aL0L
aL0L
aL0L
aL0L
aL0L
aL0L
aL0L
aL1L
aL0L
aL0L
aL0L
aL0L
aL1L
aL0L
aL0L
aL0L
aL0L
aL0L
aL0L
aL0L
aL0L
aL0L
aL0L
aL0L
aL0L
aL0L
aL1L
aL0L
aL0L
aL0L
aL1L
aL1L
aL0L
aL0L
aL0L
aL1L
aL0L
aL0L
aL0L
aL0L
aL0L
aL1L
aL0L
aL0L
aL0L
aL1L
aL0L
aL0L
aL0L
aL0L
aL0L
aL0L
aL0L
aL1L
aL0L
aL0L
aL0L
aL1L
aL1L
aL0L
aL0L
aL0L
aL0L
aL0L
aL0L
aL0L
aL0L
aL0L
aL1L
aL0L
aL0L
aL1L
aL0L
aL1L
aL0L
aL0L
aL1L
aL0L
aL0L
aL0L
aL0L
aL0L
aL1L
aL1L
aL0L
aL0L
aL0L
aL1L
aL0L
aL0L
aL0L
aL0L
aL1L
aL0L
aL0L
aL1L
aL0L
aL1L
aL0L
aL0L
aL0L
aL1L
aL1L
aL1L
aL1L
aL0L
aL0L
aL0L
aL0L
aL0L
aL0L
aL1L
aL0L
aL0L
aL1L
aL0L
aL0L
aL0L
aL0L
aL1L
aL0L
aL0L
aL0L
aL1L
aL0L
aL0L
aL0L
aL0L
aL0L
aL0L
aL0L
aL1L
aL1L
aL0L
aL0L
aL0L
aL1L
aL0L
aL0L
aL0L
aL0L
aL0L
aL0L
aL1L
aL0L
aL1L
aL0L
aL1L
aL1L
aL0L
aL0L
aL0L
aL0L
aL0L
aL0L
aL0L
aL0L
aL0L
aL0L
aL0L
aL0L
aL1L
aL1L
aL0L
aL1L
aL1L
aL1L
aL1L
aL1L
aL0L
aL0L
aL0L
aL0L
aL0L
aL0L
aL1L
aL1L
aL0L
aL0L
aL0L
aL0L
aL1L
aL0L
aL0L
aL1L
aL0L
aL0L
aL0L
aL0L
aL0L
aL0L
aL0L
aL0L
aL0L
aL0L
aL0L
aL0L
aL0L
aL0L
aL0L
aL0L
aL0L
aL1L
aL0L
aL1L
aL0L
aL0L
aL0L
aL0L
aL1L
aL0L
aL0L
aL0L
aL0L
aL0L
aL0L
aL0L
aL0L
aL1L
aL0L
aL0L
aL1L
aL1L
aL0L
aL0L
aL0L
aL1L
aL0L
aL0L
aL0L
aL1L
aL0L
aL0L
aL0L
aL0L
aL0L
aL0L
aL0L
aL1L
aL0L
aL1L
aL0L
aL0L
aL0L
aL1L
aL0L
aL1L
aL0L
aL0L
aL0L
aL0L
aL0L
aL0L
aL0L
aL0L
aL0L
aL0L
aL1L
aL0L
aL0L
aL0L
aL0L
aL1L
aL0L
aL0L
aL0L
aL0L
aL1L
aL1L
aL0L
aL0L
aL0L
aL0L
aL0L
aL1L
aL0L
aL0L
aL1L
aL0L
aL0L
aL0L
aL0L
aL0L
aL0L
aL0L
aL1L
aL0L
aL0L
aL0L
aL0L
aL0L
aL0L
aL0L
aL1L
aL1L
aL1L
aL0L
aL1L
aL0L
aL0L
aL0L
aL0L
aL0L
aL0L
aL1L
aL0L
aL0L
aL1L
aL1L
aL0L
aL0L
aL1L
aL0L
aL1L
aL0L
aL0L
aL0L
aL1L
aL0L
aL0L
aL1L
aL0L
aL0L
aL0L
aL0L
aL0L
aL0L
aL0L
aL0L
aL0L
aL1L
aL0L
aL0L
aL1L
aL0L
aL0L
aL0L
aL0L
aL0L
aL0L
aL0L
aL0L
aL0L
aL0L
aL0L
aL0L
aL0L
aL0L
aL0L
aL0L
aL1L
aL1L
aL0L
aL0L
aL1L
aL0L
aL0L
aL0L
aL0L
aL0L
aL0L
aL0L
aL1L
aL0L
aL1L
aL0L
aL0L
aL0L
aL1L
aL0L
aL0L
aL0L
aL0L
aL1L
aL0L
aL0L
aL0L
aL1L
aL0L
aL0L
aL0L
aL0L
aL0L
aL0L
aL0L
aL0L
aL0L
aL0L
aL1L
aL0L
aL0L
aL1L
aL1L
aL0L
aL1L
aL0L
aL0L
aL0L
aL0L
aL0L
aL1L
aL0L
aL0L
aL0L
aL0L
aL1L
aL1L
aL0L
aL1L
aL0L
aL0L
aL0L
aL0L
aL0L
aL1L
aL0L
aL1L
aL0L
aL0L
aL0L
aL1L
aL0L
aL0L
aL0L
aL0L
aL0L
aL0L
aL0L
aL0L
aL0L
aL1L
aL0L
aL0L
aL0L
aL0L
aL1L
aL0L
aL0L
aL0L
aL0L
aL1L
aL0L
aL0L
aL0L
aL0L
aL0L
aL0L
aL0L
aL0L
aL0L
aL1L
aL1L
aL1L
aL0L
aL0L
aL0L
aL1L
aL0L
aL0L
aL1L
aL0L
aL0L
aL0L
aL0L
aL0L
aL0L
aL0L
aL0L
aL0L
aL1L
aL0L
aL0L
aL0L
aL1L
aL0L
aL1L
aL0L
aL0L
aL1L
aL0L
aL0L
aL0L
aL0L
aL0L
aL0L
aL0L
aL0L
aL0L
aL0L
aL0L
aL0L
aL1L
aL0L
aL0L
aL0L
aL0L
aL0L
aL0L
aL0L
aL0L
aL0L
aL0L
aL0L
aL1L
aL0L
aL0L
aL0L
aL0L
aL0L
aL0L
aL0L
aL0L
aL0L
aL0L
aL0L
aL0L
aL0L
aL1L
aL0L
aL0L
aL0L
aL0L
aL0L
aL0L
aL0L
aL1L
aL0L
aL0L
aL0L
aL1L
aL0L
aL0L
aL0L
aL0L
aL0L
aL0L
aL0L
aL0L
aL0L
aL0L
aL0L
aL0L
aL1L
aL0L
aL0L
aL0L
aL0L
aL1L
aL0L
aL0L
aL0L
aL0L
aL1L
aL0L
aL0L
aL0L
aL0L
aL0L
aL0L
aL1L
aL0L
aL0L
aL0L
aL0L
aL0L
aL1L
aL0L
aL0L
aL0L
aL1L
aL1L
aL0L
aL0L
aL1L
aL0L
aL0L
aL0L
aL1L
aL0L
aL1L
aL1L
aL1L
aL0L
aL0L
aL1L
aL0L
aL0L
aL0L
aL0L
aL0L
aL0L
aL0L
aL1L
aL0L
aL1L
aL0L
aL0L
aL0L
aL1L
aL0L
aL0L
aL0L
aL0L
aL0L
aL0L
aL0L
aL0L
aL0L
aL1L
aL0L
aL0L
aL0L
aL0L
aL1L
aL0L
aL0L
aL1L
aL1L
aL0L
aL0L
aL1L
aL0L
aL0L
aL0L
aL0L
aL0L
aL0L
aL0L
aL0L
aL1L
aL0L
aL0L
aL0L
aL0L
aL0L
aL0L
aL0L
aL1L
aL0L
aL0L
aL0L
aL0L
aL0L
aL0L
aL0L
aL0L
aL0L
aL0L
aL0L
aL1L
aL0L
aL0L
aL0L
aL0L
aL0L
aL1L
aL0L
aL0L
aL0L
aL1L
aL0L
aL1L
aL0L
aL0L
aL0L
aL0L
aL1L
aL0L
aL1L
aL0L
aL0L
aL0L
aL1L
aL0L
aL0L
aL0L
aL0L
aL1L
aL1L
aL1L
aL0L
aL0L
aL0L
aL1L
aL0L
aL0L
aL1L
aL1L
aL1L
aL1L
aL0L
aL0L
aL1L
aL1L
aL0L
aL0L
aL0L
aL0L
aL1L
aL0L
aL0L
aL0L
aL0L
aL0L
aL0L
aL0L
aL0L
aL1L
aL0L
aL0L
aL0L
aL1L
aL1L
aL0L
aL0L
aL1L
aL1L
aL0L
aL0L
aL0L
aL0L
aL0L
aL1L
aL0L
aL0L
aL0L
aL0L
aL0L
aL1L
aL0L
aL1L
aL1L
aL0L
aL1L
aL0L
aL1L
aL1L
aL0L
aL0L
aL1L
aL0L
aL0L
aL0L
aL0L
aL1L
aL0L
aL0L
aL1L
aL0L
aL0L
aL0L
aL0L
aL0L
aL0L
aL0L
aL0L
aL0L
aL0L
aL0L
aL1L
aL0L
aL1L
aL0L
aL0L
aL0L
aL0L
aL0L
aL0L
aL0L
aL0L
aL1L
aL0L
aL0L
aL0L
aL1L
aL0L
aL0L
aL0L
aL0L
aL0L
aL0L
aL0L
aL0L
aL1L
aL0L
aL0L
aL0L
aL0L
aL0L
aL0L
aL0L
aL0L
aL0L
aL1L
aL0L
aL0L
aL0L
aL0L
aL0L
aL0L
aL0L
aL1L
aL0L
aL0L
aL0L
aL0L
aL1L
aL0L
aL0L
aL0L
aL0L
aL0L
aL1L
aL0L
aL0L
aL0L
aL1L
aL0L
aL0L
aL1L
aL0L
aL1L
aL0L
aL0L
aL0L
aL1L
aL1L
aL0L
aL0L
aL1L
aL0L
aL1L
aL0L
aL1L
aL1L
aL1L
aL0L
aL0L
aL0L
aL0L
aL0L
aL0L
aL1L
aL0L
aL1L
aL0L
aL0L
aL0L
aL0L
aL0L
aL1L
aL0L
aL0L
aL0L
aL1L
aL0L
aL0L
aL0L
aL0L
aL0L
aL0L
aL0L
aL0L
aL0L
aL0L
aL0L
aL0L
aL1L
aL0L
aL1L
aL0L
aL0L
aL1L
aL0L
aL1L
aL0L
aL0L
aL0L
aL0L
aL0L
aL0L
aL0L
aL0L
aL1L
aL0L
aL0L
aL0L
aL0L
aL0L
aL0L
aL0L
aL1L
aL0L
aL0L
aL1L
aL0L
aL1L
aL1L
aL0L
aL0L
aL0L
aL1L
aL0L
aL1L
aL1L
aL1L
aL0L
aL1L
aL1L
aL1L
aL0L
aL1L
aL1L
aL0L
aL0L
aL0L
aL0L
aL0L
aL0L
aL0L
aL0L
aL0L
aL1L
aL0L
aL0L
aL0L
aL1L
aL0L
aL0L
aL0L
aL0L
aL0L
aL1L
aL0L
aL0L
aL1L
aL0L
aL1L
aL0L
aL0L
aL0L
aL0L
aL1L
aL1L
aL0L
aL0L
aL0L
aL0L
aL1L
aL0L
aL0L
aL1L
aL0L
aL0L
aL0L
aL0L
aL1L
aL1L
aL0L
aL1L
aL1L
aL0L
aL0L
aL0L
aL1L
aL0L
aL0L
aL0L
aL0L
aL0L
aL0L
aL0L
aL0L
aL0L
aL1L
aL1L
aL0L
aL0L
aL0L
aL0L
aL0L
aL0L
aL0L
aL0L
aL1L
aL1L
aL1L
aL0L
aL0L
aL0L
aL0L
aL0L
aL0L
aL0L
aL0L
aL1L
aL1L
aL0L
aL0L
aL0L
aL0L
aL0L
aL0L
aL1L
aL0L
aL1L
aL1L
aL1L
aL1L
aL0L
aL0L
aL1L
aL0L
aL0L
aL1L
aL0L
aL1L
aL0L
aL0L
aL1L
aL1L
aL0L
aL0L
aL0L
aL1L
aL0L
aL1L
aL0L
aL1L
aL1L
aL0L
aL0L
aL0L
aL1L
aL0L
aL1L
aL1L
aL0L
aL0L
aL0L
aL0L
aL0L
aL0L
aL1L
aL0L
aL0L
aL1L
aL0L
aL0L
aL0L
aL1L
aL0L
aL0L
aL0L
aL0L
aL0L
aL0L
aL0L
aL1L
aL0L
aL0L
aL1L
aL1L
aL0L
aL1L
aL0L
aL0L
aL0L
aL0L
aL0L
aL0L
aL1L
aL0L
aL1L
aL0L
aL1L
aL1L
aL0L
aL0L
aL0L
aL0L
aL0L
aL0L
aL0L
aL1L
aL0L
aL0L
aL1L
aL0L
aL0L
aL0L
aL0L
aL0L
aL0L
aL0L
aL0L
aL1L
aL0L
aL0L
aL0L
aL0L
aL1L
aL0L
aL1L
aL1L
aL0L
aL0L
aL0L
aL0L
aL1L
aL0L
aL0L
aL0L
aL0L
aL0L
aL0L
aL0L
aL1L
aL0L
aL0L
aL1L
aL0L
aL0L
aL0L
aL0L
aL0L
aL1L
aL0L
aL0L
aL1L
aL0L
aL0L
aL0L
aL0L
aL0L
aL1L
aL0L
aL0L
aL0L
aL0L
aL0L
aL1L
aL1L
aL0L
aL0L
aL1L
aL0L
aL0L
aL0L
aL0L
aL0L
aL0L
aL0L
aL0L
aL0L
aL1L
aL1L
aL1L
aL1L
aL1L
aL0L
aL0L
aL0L
aL0L
aL0L
aL0L
aL0L
aL0L
aL0L
aL0L
aL1L
aL0L
aL0L
aL0L
aL0L
aL0L
aL0L
aL1L
aL0L
aL0L
aL0L
aL0L
aL0L
aL0L
aL0L
aL1L
aL1L
aL0L
aL0L
aL1L
aL0L
aL0L
aL0L
aL0L
aL0L
aL0L
aL1L
aL0L
aL0L
aL0L
aL0L
aL1L
aL1L
aL0L
aL0L
aL0L
aL1L
aL0L
aL0L
aL0L
aL1L
aL0L
aL0L
aL0L
aL0L
aL1L
aL0L
aL1L
aL0L
aL0L
aL0L
aL1L
aL0L
aL0L
aL1L
aL0L
aL1L
aL1L
aL1L
aL0L
aL0L
aL0L
aL0L
aL0L
aL0L
aL1L
aL0L
aL0L
aL0L
aL1L
aL0L
aL0L
aL0L
aL0L
aL0L
aL0L
aL0L
aL1L
aL0L
aL0L
aL0L
aL0L
aL0L
aL0L
aL0L
aL0L
aL0L
aL1L
aL0L
aL1L
aL0L
aL0L
aL0L
aL0L
aL0L
aL0L
aL0L
aL0L
aL0L
aL0L
aL0L
aL0L
aL1L
aL0L
aL1L
aL0L
aL0L
aL0L
aL1L
aL0L
aL0L
aL0L
aL1L
aL0L
aL0L
aL0L
aL0L
aL0L
aL0L
aL0L
aL0L
aL0L
aL0L
aL1L
aL0L
aL1L
aL0L
aL0L
aL0L
aL1L
aL0L
aL0L
aL1L
aL1L
aL0L
aL0L
aL0L
aL0L
aL1L
aL1L
aL0L
aL0L
aL0L
aL0L
aL0L
aL0L
aL0L
aL0L
aL0L
aL0L
aL0L
aL0L
aL0L
aL1L
aL0L
aL1L
aL0L
aL0L
aL1L
aL0L
aL0L
aL0L
aL0L
aL0L
aL0L
aL0L
aL0L
aL0L
aL0L
aL0L
aL0L
aL0L
aL1L
aL0L
aL0L
aL0L
aL0L
aL0L
aL0L
aL0L
aL0L
aL0L
aL0L
aL0L
aL0L
aL0L
aL0L
aL0L
aL1L
aL0L
aL0L
aL1L
aL0L
aL0L
aL0L
aL0L
aL0L
aL0L
aL0L
aL1L
aL1L
aL0L
aL1L
aL0L
aL0L
aL0L
aL0L
aL0L
aL1L
aL1L
aL0L
aL0L
aL0L
aL1L
aL1L
aL1L
aL0L
aL1L
aL0L
aL0L
aL0L
aL0L
aL0L
aL0L
aL1L
aL1L
aL0L
aL1L
aL0L
aL0L
aL1L
aL0L
aL0L
aL0L
aL1L
aL0L
aL0L
aL1L
aL0L
aL1L
aL0L
aL0L
aL0L
aL0L
aL0L
aL1L
aL0L
aL0L
aL0L
aL1L
aL0L
aL0L
aL0L
aL0L
aL0L
aL0L
aL1L
aL0L
aL0L
aL0L
aL0L
aL1L
aL0L
aL0L
aL0L
aL0L
aL0L
aL0L
aL1L
aL0L
aL0L
aL0L
aL0L
aL1L
aL0L
aL0L
aL0L
aL0L
aL1L
aL0L
aL0L
aL0L
aL1L
aL0L
aL0L
aL0L
aL0L
aL1L
aL0L
aL0L
aL0L
aL0L
aL1L
aL0L
aL0L
aL0L
aL0L
aL1L
aL0L
aL0L
aL0L
aL1L
aL1L
aL0L
aL1L
aL0L
aL0L
aL1L
aL0L
aL0L
aL1L
aL1L
aL0L
aL0L
aL1L
aL0L
aL0L
aL1L
aL0L
aL0L
aL0L
aL0L
aL1L
aL1L
aL1L
aL1L
aL0L
aL1L
aL0L
aL1L
aL0L
aL0L
aL1L
aL1L
aL1L
aL0L
aL1L
aL1L
aL0L
aL0L
aL0L
aL0L
aL1L
aL0L
aL1L
aL0L
aL0L
aL0L
aL0L
aL1L
aL0L
aL0L
aL0L
aL0L
aL0L
aL1L
aL1L
aL1L
aL1L
aL0L
aL0L
aL0L
aL0L
aL0L
aL1L
aL0L
aL0L
aL0L
aL0L
aL0L
aL0L
aL0L
aL0L
aL0L
aL0L
aL0L
aL0L
aL0L
aL1L
aL1L
aL0L
aL1L
aL0L
aL0L
aL0L
aL0L
aL0L
aL1L
aL0L
aL0L
aL1L
aL1L
aL1L
aL0L
aL0L
aL1L
aL1L
aL1L
aL1L
aL1L
aL0L
aL1L
aL0L
aL1L
aL0L
aL0L
aL0L
aL0L
aL0L
aL0L
aL0L
aL0L
aL1L
aL0L
aL0L
aL0L
aL1L
aL0L
aL1L
aL0L
aL0L
aL0L
aL0L
aL0L
aL0L
aL0L
aL0L
aL0L
aL0L
aL1L
aL0L
aL0L
aL1L
aL0L
aL0L
aL0L
aL0L
aL1L
aL1L
aL1L
aL0L
aL0L
aL1L
aL1L
aL0L
aL0L
aL0L
aL0L
aL0L
aL0L
aL1L
aL0L
aL1L
aL0L
aL0L
aL0L
aL1L
aL0L
aL1L
aL1L
aL1L
aL0L
aL1L
aL0L
aL0L
aL0L
aL0L
aL1L
aL1L
aL0L
aL0L
aL0L
aL0L
aL0L
aL0L
aL0L
aL0L
aL0L
aL0L
aL0L
aL0L
aL0L
aL1L
aL1L
aL1L
aL0L
aL0L
aL0L
aL1L
aL0L
aL0L
aL0L
aL0L
aL0L
aL0L
aL0L
aL1L
aL0L
aL0L
aL1L
aL0L
aL0L
aL1L
aL1L
aL0L
aL0L
aL0L
aL1L
aL1L
aL0L
aL1L
aL0L
aL0L
aL0L
aL0L
aL0L
aL0L
aL0L
aL1L
aL0L
aL0L
aL0L
aL0L
aL0L
aL0L
aL0L
aL0L
aL0L
aL0L
aL0L
aL0L
aL0L
aL0L
aL0L
aL1L
aL0L
aL0L
aL0L
aL0L
aL1L
aL0L
aL1L
aL0L
aL0L
aL1L
aL1L
aL1L
aL0L
aL0L
aL0L
aL1L
aL1L
aL0L
aL1L
aL0L
aL0L
aL0L
aL1L
aL0L
aL0L
aL0L
aL1L
aL0L
aL0L
aL0L
aL0L
aL0L
aL0L
aL0L
aL0L
aL0L
aL1L
aL0L
aL0L
aL1L
aL0L
aL0L
aL1L
aL1L
aL0L
aL0L
aL0L
aL0L
aL0L
aL0L
aL0L
aL0L
aL0L
aL0L
aL0L
aL1L
aL0L
aL0L
aL0L
aL1L
aL0L
aL0L
aL0L
aL0L
aL0L
aL0L
aL1L
aL0L
aL1L
aL0L
aL0L
aL1L
aL0L
aL0L
aL0L
aL0L
aL0L
aL1L
aL1L
aL0L
aL0L
aL0L
aL0L
aL0L
aL0L
aL0L
aL1L
aL0L
aL0L
aL0L
aL1L
aL1L
aL0L
aL0L
aL0L
aL0L
aL0L
aL0L
aL0L
aL1L
aL0L
aL0L
aL0L
aL0L
aL0L
aL1L
aL1L
aL0L
aL0L
aL0L
aL0L
aL0L
aL0L
aL1L
aL1L
aL0L
aL0L
aL0L
aL0L
aL0L
aL0L
aL1L
aL0L
aL1L
aL0L
aL0L
aL1L
aL0L
aL1L
aL0L
aL0L
aL1L
aL0L
aL0L
aL1L
aL0L
aL0L
aL1L
aL0L
aL0L
aL1L
aL0L
aL0L
aL0L
aL0L
aL1L
aL1L
aL0L
aL0L
aL0L
aL0L
aL0L
aL1L
aL0L
aL0L
aL0L
aL0L
aL1L
aL0L
aL0L
aL0L
aL0L
aL1L
aL0L
aL0L
aL0L
aL0L
aL1L
aL0L
aL0L
aL0L
aL0L
aL1L
aL0L
aL0L
aL1L
aL0L
aL1L
aL0L
aL0L
aL0L
aL0L
aL0L
aL0L
aL0L
aL1L
aL0L
aL0L
aL1L
aL1L
aL1L
aL0L
aL0L
aL1L
aL0L
aL1L
aL0L
aL1L
aL1L
aL1L
aL0L
aL0L
aL0L
aL0L
aL0L
aL0L
aL0L
aL1L
aL0L
aL0L
aL1L
aL1L
aL0L
aL0L
aL0L
aL0L
aL0L
aL0L
aL1L
aL0L
aL0L
aL1L
aL0L
aL0L
aL0L
aL0L
aL1L
aL0L
aL1L
aL0L
aL0L
aL0L
aL0L
aL1L
aL0L
aL1L
aL0L
aL0L
aL0L
aL1L
aL1L
aL1L
aL1L
aL0L
aL1L
aL0L
aL0L
aL0L
aL1L
aL1L
aL0L
aL1L
aL1L
aL0L
aL0L
aL0L
aL1L
aL0L
aL0L
aL0L
aL0L
aL0L
aL0L
aL0L
aL0L
aL0L
aL0L
aL0L
aL0L
aL1L
aL0L
aL0L
aL1L
aL0L
aL0L
aL0L
aL0L
aL0L
aL1L
aL1L
aL1L
aL0L
aL0L
aL0L
aL0L
aL1L
aL0L
aL1L
aL1L
aL1L
aL0L
aL0L
aL1L
aL1L
aL0L
aL0L
aL0L
aL0L
aL0L
aL1L
aL0L
aL0L
aL0L
aL0L
aL0L
aL1L
aL1L
aL0L
aL0L
aL0L
aL0L
aL0L
aL1L
aL0L
aL0L
aL1L
aL0L
aL0L
aL1L
aL0L
aL0L
aL0L
aL0L
aL0L
aL0L
aL0L
aL0L
aL1L
aL1L
aL0L
aL0L
aL0L
aL0L
aL0L
aL0L
aL0L
aL0L
aL0L
aL1L
aL0L
aL0L
aL0L
aL0L
aL0L
aL0L
aL0L
aL0L
aL0L
aL0L
aL0L
aL0L
aL0L
aL0L
aL1L
aL0L
aL1L
aL0L
aL1L
aL1L
aL0L
aL0L
aL1L
aL1L
aL1L
aL0L
aL0L
aL1L
aL1L
aL0L
aL0L
aL1L
aL0L
aL0L
aL0L
aL0L
aL1L
aL0L
aL0L
aL0L
aL0L
aL1L
aL1L
aL0L
aL1L
aL0L
aL0L
aL0L
aL1L
aL0L
aL0L
aL0L
aL0L
aL0L
aL1L
aL0L
aL0L
aL0L
aL0L
aL1L
aL1L
aL0L
aL1L
aL1L
aL0L
aL1L
aL0L
aL0L
aL0L
aL0L
aL0L
aL0L
aL0L
aL0L
aL0L
aL0L
aL1L
aL0L
aL0L
aL0L
aL0L
aL1L
aL1L
aL1L
aL1L
aL1L
aL0L
aL0L
aL0L
aL0L
aL1L
aL0L
aL1L
aL0L
aL0L
aL0L
aL0L
aL0L
aL0L
aL0L
aL0L
aL1L
aL0L
aL0L
aL0L
aL0L
aL0L
aL0L
aL0L
aL0L
aL0L
aL0L
aL1L
aL0L
aL0L
aL1L
aL1L
aL0L
aL0L
aL0L
aL0L
aL1L
aL1L
aL0L
aL0L
aL0L
aL1L
aL0L
aL0L
aL0L
aL0L
aL1L
aL1L
aL1L
aL1L
aL0L
aL0L
aL0L
aL0L
aL0L
aL0L
aL0L
aL0L
aL0L
aL0L
aL0L
aL0L
aL0L
aL1L
aL1L
aL0L
aL0L
aL0L
aL0L
aL0L
aL0L
aL0L
aL1L
aL0L
aL1L
aL0L
aL0L
aL0L
aL0L
aL1L
aL0L
aL0L
aL0L
aL0L
aL1L
aL0L
aL0L
aL0L
aL0L
aL0L
aL0L
aL1L
aL0L
aL1L
aL1L
aL0L
aL1L
aL0L
aL0L
aL0L
aL0L
aL0L
aL1L
aL1L
aL0L
aL0L
aL0L
aL0L
aL1L
aL0L
aL1L
aL0L
aL0L
aL1L
aL0L
aL1L
aL0L
aL1L
aL1L
aL1L
aL0L
aL0L
aL0L
aL0L
aL0L
aL1L
aL0L
aL0L
aL0L
aL0L
aL0L
aL0L
aL0L
aL0L
aL0L
aL0L
aL0L
aL0L
aL0L
aL0L
aL0L
aL0L
aL0L
aL0L
aL0L
aL0L
aL0L
aL0L
aL1L
aL1L
aL0L
aL0L
aL0L
aL0L
aL0L
aL0L
aL0L
aL0L
aL0L
aL0L
aL1L
aL0L
aL0L
aL0L
aL1L
aL0L
aL0L
aL1L
aL0L
aL0L
aL0L
aL1L
aL0L
aL0L
aL0L
aL0L
aL0L
aL1L
aL0L
aL1L
aL0L
aL0L
aL0L
aL0L
aL0L
aL0L
aL1L
aL0L
aL0L
aL0L
aL0L
aL1L
aL1L
aL0L
aL1L
aL0L
aL0L
aL0L
aL0L
aL0L
aL0L
aL1L
aL0L
aL0L
aL0L
aL1L
aL0L
aL0L
aL1L
aL1L
aL0L
aL0L
aL1L
aL0L
aL0L
aL0L
aL1L
aL0L
aL0L
aL0L
aL0L
aL1L
aL0L
aL1L
aL1L
aL0L
aL0L
aL0L
aL0L
aL0L
aL1L
aL0L
aL1L
aL0L
aL1L
aL0L
aL0L
aL0L
aL1L
aL0L
aL0L
aL1L
aL1L
aL1L
aL0L
aL0L
aL0L
aL0L
aL1L
aL0L
aL0L
aL0L
aL0L
aL0L
aL0L
aL1L
aL1L
aL0L
aL1L
aL0L
aL0L
aL1L
aL0L
aL0L
aL0L
aL1L
aL0L
aL0L
aL0L
aL1L
aL0L
aL1L
aL0L
aL0L
aL0L
aL0L
aL1L
aL1L
aL1L
aL1L
aL1L
aL0L
aL0L
aL0L
aL0L
aL0L
aL1L
aL1L
aL0L
aL0L
aL0L
aL0L
aL0L
aL0L
aL0L
aL0L
aL1L
aL0L
aL1L
aL0L
aL1L
aL0L
aL0L
aL0L
aL0L
aL0L
aL0L
aL1L
aL1L
aL0L
aL1L
aL0L
aL0L
aL0L
aL0L
aL0L
aL1L
aL0L
aL1L
aL1L
aL0L
aL1L
aL0L
aL0L
aL1L
aL0L
aL1L
aL1L
aL0L
aL0L
aL0L
aL0L
aL0L
aL0L
aL0L
aL0L
aL0L
aL0L
aL0L
aL1L
aL0L
aL1L
aL0L
aL0L
aL0L
aL0L
aL0L
aL0L
aL0L
aL1L
aL0L
aL0L
aL0L
aL0L
aL0L
aL0L
aL0L
aL0L
aL0L
aL0L
aL1L
aL1L
aL0L
aL1L
aL1L
aL0L
aL1L
aL0L
aL0L
aL1L
aL0L
aL0L
aL0L
aL0L
aL0L
aL0L
aL0L
aL1L
aL0L
aL0L
aL1L
aL0L
aL1L
aL0L
aL1L
aL0L
aL0L
aL1L
aL1L
aL0L
aL0L
aL0L
aL0L
aL0L
aL0L
aL1L
aL0L
aL1L
aL0L
aL0L
aL0L
aL0L
aL0L
aL1L
aL0L
aL0L
aL0L
aL1L
aL0L
aL0L
aL0L
aL1L
aL0L
aL0L
aL1L
aL0L
aL0L
aL0L
aL0L
aL0L
aL1L
aL0L
aL0L
aL0L
aL0L
aL1L
aL0L
aL0L
aL0L
aL1L
aL0L
aL0L
aL1L
aL0L
aL0L
aL0L
aL0L
aL0L
aL0L
aL0L
aL0L
aL1L
aL0L
aL0L
aL1L
aL1L
aL0L
aL0L
aL0L
aL0L
aL0L
aL0L
aL0L
aL1L
aL0L
aL0L
aL1L
aL0L
aL0L
aL0L
aL1L
aL0L
aL0L
aL0L
aL0L
aL0L
aL0L
aL1L
aL0L
aL0L
aL0L
aL0L
aL0L
aL0L
aL1L
aL0L
aL1L
aL1L
aL0L
aL1L
aL0L
aL0L
aL1L
aL0L
aL0L
aL0L
aL0L
aL0L
aL0L
aL0L
aL0L
aL0L
aL1L
aL0L
aL0L
aL0L
aL0L
aL0L
aL0L
aL0L
aL0L
aL0L
aL0L
aL0L
aL0L
aL0L
aL0L
aL0L
aL0L
aL0L
aL0L
aL1L
aL1L
aL0L
aL0L
aL0L
aL0L
aL0L
aL0L
aL0L
aL1L
aL1L
aL0L
aL1L
aL0L
aL1L
aL0L
aL0L
aL0L
aL1L
aL0L
aL0L
aL0L
aL1L
aL0L
aL0L
aL0L
aL0L
aL0L
aL0L
aL0L
aL1L
aL0L
aL1L
aL1L
aL0L
aL0L
aL1L
aL1L
aL0L
aL0L
aL0L
aL1L
aL0L
aL0L
aL1L
aL1L
aL0L
aL0L
aL0L
aL0L
aL1L
aL0L
aL0L
aL0L
aL0L
aL1L
aL0L
aL0L
aL0L
aL0L
aL0L
aL0L
aL0L
aL0L
aL0L
aL0L
aL0L
aL0L
aL0L
aL0L
aL0L
aL0L
aL1L
aL0L
aL1L
aL1L
aL1L
aL0L
aL0L
aL0L
aL0L
aL1L
aL0L
aL0L
aL0L
aL1L
aL0L
aL1L
aL0L
aL0L
aL0L
aL0L
aL0L
aL0L
aL0L
aL0L
aL1L
aL0L
aL0L
aL0L
aL0L
aL0L
aL0L
aL0L
aL0L
aL0L
aL0L
aL0L
aL0L
aL0L
aL0L
aL1L
aL0L
aL0L
aL0L
aL0L
aL0L
aL0L
aL1L
aL0L
aL0L
aL1L
aL1L
aL1L
aL0L
aL0L
aL0L
aL0L
aL1L
aL1L
aL0L
aL0L
aL0L
aL0L
aL0L
aL0L
aL0L
aL0L
aL0L
aL1L
aL1L
aL1L
aL0L
aL0L
aL0L
aL0L
aL0L
aL1L
aL1L
aL0L
aL0L
aL0L
aL1L
aL1L
aL0L
aL0L
aL0L
aL0L
aL0L
aL0L
aL0L
aL1L
aL0L
aL1L
aL0L
aL0L
aL0L
aL0L
aL0L
aL0L
aL0L
aL0L
aL0L
aL0L
aL0L
aL0L
aL0L
aL0L
aL1L
aL0L
aL1L
aL1L
aL0L
aL1L
aL0L
aL1L
aL0L
aL0L
aL1L
aL0L
aL0L
aL1L
aL0L
aL0L
aL1L
aL1L
aL0L
aL0L
aL0L
aL1L
aL1L
aL0L
aL1L
aL0L
aL0L
aL0L
aL0L
aL0L
aL0L
aL0L
aL0L
aL0L
aL0L
aL0L
aL0L
aL0L
aL1L
aL0L
aL0L
aL0L
aL0L
aL0L
aL0L
aL1L
aL0L
aL0L
aL0L
aL1L
aL0L
aL0L
aL1L
aL0L
aL0L
aL0L
aL0L
aL0L
aL0L
aL0L
aL1L
aL0L
aL1L
aL0L
aL1L
aL0L
aL0L
aL0L
aL0L
aL1L
aL1L
aL0L
aL0L
aL0L
aL1L
aL0L
aL1L
aL0L
aL0L
aL1L
aL0L
aL1L
aL1L
aL1L
aL0L
aL0L
aL0L
aL1L
aL0L
aL0L
aL0L
aL0L
aL0L
aL1L
aL0L
aL1L
aL0L
aL0L
aL0L
aL0L
aL0L
aL0L
aL0L
aL0L
aL1L
aL0L
aL0L
aL0L
aL0L
aL1L
aL0L
aL0L
aL1L
aL0L
aL1L
aL1L
aL1L
aL0L
aL0L
aL0L
aL0L
aL0L
aL0L
aL0L
aL0L
aL0L
aL0L
aL1L
aL1L
aL1L
aL0L
aL0L
aL0L
aL0L
aL1L
aL0L
aL0L
aL0L
aL0L
aL1L
aL0L
aL0L
aL0L
aL1L
aL1L
aL0L
aL0L
aL0L
aL0L
aL0L
aL0L
aL1L
aL1L
aL1L
aL0L
aL1L
aL0L
aL0L
aL0L
aL0L
aL1L
aL0L
aL0L
aL0L
aL1L
aL0L
aL1L
aL1L
aL0L
aL1L
aL0L
aL0L
aL1L
aL0L
aL0L
aL0L
aL0L
aL0L
aL0L
aL0L
aL0L
aL1L
aL0L
aL0L
aL1L
aL1L
aL0L
aL1L
aL0L
aL0L
aL0L
aL0L
aL1L
aL0L
aL0L
aL0L
aL0L
aL0L
aL1L
aL0L
aL0L
aL0L
aL0L
aL1L
aL1L
aL0L
aL1L
aL0L
aL0L
aL0L
aL0L
aL0L
aL0L
aL1L
aL1L
aL0L
aL0L
aL0L
aL0L
aL1L
aL0L
aL0L
aL0L
aL0L
aL1L
aL0L
aL1L
aL0L
aL1L
aL1L
aL0L
aL0L
aL0L
aL1L
aL0L
aL0L
aL0L
aL0L
aL0L
aL0L
aL1L
aL0L
aL1L
aL0L
aL0L
aL1L
aL0L
aL0L
aL1L
aL0L
aL0L
aL0L
aL0L
aL0L
aL1L
aL0L
aL0L
aL0L
aL0L
aL0L
aL0L
aL1L
aL0L
aL1L
aL1L
aL0L
aL0L
aL0L
aL0L
aL0L
aL0L
aL0L
aL0L
aL1L
aL0L
aL0L
aL0L
aL0L
aL0L
aL1L
aL0L
aL1L
aL0L
aL0L
aL0L
aL0L
aL0L
aL0L
aL0L
aL1L
aL0L
aL0L
aL1L
aL0L
aL0L
aL1L
aL0L
aL0L
aL1L
aL0L
aL0L
aL0L
aL0L
aL1L
aL0L
aL0L
aL0L
aL0L
aL1L
aL0L
aL0L
aL0L
aL0L
aL0L
aL0L
aL0L
aL0L
aL0L
aL0L
aL0L
aL0L
aL0L
aL1L
aL1L
aL0L
aL0L
aL0L
aL0L
aL0L
aL0L
aL0L
aL0L
aL0L
aL0L
aL0L
aL1L
aL0L
aL0L
aL0L
aL0L
aL0L
aL1L
aL0L
aL0L
aL0L
aL0L
aL0L
aL0L
aL0L
aL0L
aL0L
aL0L
aL0L
aL0L
aL0L
aL0L
aL0L
aL1L
aL1L
aL1L
aL0L
aL1L
aL0L
aL1L
aL1L
aL0L
aL0L
aL0L
aL0L
aL1L
aL0L
aL0L
aL1L
aL0L
aL0L
aL0L
aL0L
aL1L
aL0L
aL0L
aL0L
aL0L
aL0L
aL0L
aL0L
aL0L
aL0L
aL0L
aL0L
aL0L
aL0L
aL1L
aL0L
aL0L
aL0L
aL1L
aL0L
aL0L
aL0L
aL0L
aL0L
aL0L
aL0L
aL0L
aL0L
aL0L
aL0L
aL0L
aL1L
aL0L
aL1L
aL0L
aL1L
aL0L
aL0L
aL0L
aL0L
aL0L
aL0L
aL0L
aL1L
aL0L
aL0L
aL0L
aL0L
aL0L
aL0L
aL0L
aL1L
aL1L
aL0L
aL0L
aL0L
aL0L
aL0L
aL0L
aL0L
aL0L
aL0L
aL0L
aL0L
aL1L
aL0L
aL0L
aL0L
aL1L
aL0L
aL0L
aL1L
aL0L
aL1L
aL1L
aL0L
aL0L
aL0L
aL1L
aL0L
aL1L
aL0L
aL0L
aL0L
aL0L
aL1L
aL1L
aL1L
aL1L
aL1L
aL0L
aL0L
aL0L
aL1L
aL1L
aL1L
aL0L
aL0L
aL0L
aL0L
aL0L
aL1L
aL1L
aL1L
aL1L
aL1L
aL0L
aL0L
aL0L
aL1L
aL0L
aL0L
aL0L
aL0L
aL1L
aL0L
aL0L
aL0L
aL0L
aL1L
aL0L
aL0L
aL1L
aL1L
aL1L
aL0L
aL1L
aL0L
aL0L
aL0L
aL1L
aL0L
aL0L
aL1L
aL0L
aL0L
aL0L
aL0L
aL0L
aL0L
aL1L
aL0L
aL0L
aL0L
aL0L
aL0L
aL1L
aL0L
aL0L
aL0L
aL1L
aL0L
aL0L
aL1L
aL0L
aL1L
aL1L
aL0L
aL1L
aL0L
aL0L
aL0L
aL0L
aL0L
aL0L
aL0L
aL1L
aL0L
aL0L
aL0L
aL0L
aL1L
aL0L
aL0L
aL0L
aL0L
aL0L
aL1L
aL1L
aL0L
aL1L
aL0L
aL1L
aL0L
aL0L
aL1L
aL1L
aL0L
aL0L
aL1L
aL1L
aL0L
aL0L
aL0L
aL1L
aL0L
aL0L
aL0L
aL0L
aL0L
aL0L
aL1L
aL0L
aL0L
aL0L
aL1L
aL0L
aL0L
aL0L
aL0L
aL0L
aL0L
aL0L
aL0L
aL0L
aL0L
aL0L
aL0L
aL0L
aL0L
aL0L
aL1L
aL0L
aL0L
aL0L
aL0L
aL0L
aL1L
aL0L
aL0L
aL0L
aL1L
aL0L
aL0L
aL1L
aL0L
aL1L
aL1L
aL0L
aL0L
aL0L
aL0L
aL1L
aL0L
aL1L
aL0L
aL0L
aL0L
aL0L
aL1L
aL0L
aL0L
aL0L
aL0L
aL0L
aL0L
aL1L
aL1L
aL0L
aL1L
aL0L
aL0L
aL1L
aL0L
aL1L
aL1L
aL0L
aL0L
aL0L
aL0L
aL0L
aL0L
aL0L
aL1L
aL0L
aL0L
aL0L
aL0L
aL1L
aL0L
aL0L
aL0L
aL0L
aL0L
aL1L
aL1L
aL1L
aL1L
aL1L
aL0L
aL0L
aL0L
aL1L
aL0L
aL0L
aL1L
aL0L
aL0L
aL0L
aL0L
aL0L
aL0L
aL0L
aL0L
aL1L
aL1L
aL0L
aL0L
aL1L
aL1L
aL0L
aL0L
aL0L
aL0L
aL0L
aL0L
aL1L
aL0L
aL0L
aL0L
aL0L
aL0L
aL1L
aL0L
aL0L
aL1L
aL0L
aL0L
aL0L
aL0L
aL0L
aL0L
aL0L
aL0L
aL0L
aL0L
aL0L
aL0L
aL0L
aL1L
aL1L
aL0L
aL0L
aL1L
aL0L
aL0L
aL0L
aL1L
aL0L
aL0L
aL0L
aL0L
aL0L
aL1L
aL0L
aL0L
aL0L
aL1L
aL0L
aL0L
aL0L
aL1L
aL1L
aL1L
aL1L
aL0L
aL0L
aL0L
aL0L
aL0L
aL1L
aL0L
aL0L
aL0L
aL0L
aL0L
aL0L
aL1L
aL0L
aL0L
aL1L
a.